
Byggern gruppe 36.elf:     file format elf32-avr

Sections:
Idx Name          Size      VMA       LMA       File off  Algn
  0 .data         000001cc  00800100  00001590  00001624  2**0
                  CONTENTS, ALLOC, LOAD, DATA
  1 .text         00001590  00000000  00000000  00000094  2**1
                  CONTENTS, ALLOC, LOAD, READONLY, CODE
  2 .bss          00000021  008002cc  008002cc  000017f0  2**0
                  ALLOC
  3 .comment      0000005c  00000000  00000000  000017f0  2**0
                  CONTENTS, READONLY
  4 .note.gnu.avr.deviceinfo 0000003c  00000000  00000000  0000184c  2**2
                  CONTENTS, READONLY
  5 .debug_aranges 00000240  00000000  00000000  00001888  2**0
                  CONTENTS, READONLY, DEBUGGING
  6 .debug_info   000026a7  00000000  00000000  00001ac8  2**0
                  CONTENTS, READONLY, DEBUGGING
  7 .debug_abbrev 000010ee  00000000  00000000  0000416f  2**0
                  CONTENTS, READONLY, DEBUGGING
  8 .debug_line   000013a1  00000000  00000000  0000525d  2**0
                  CONTENTS, READONLY, DEBUGGING
  9 .debug_frame  000005d4  00000000  00000000  00006600  2**2
                  CONTENTS, READONLY, DEBUGGING
 10 .debug_str    0000088c  00000000  00000000  00006bd4  2**0
                  CONTENTS, READONLY, DEBUGGING
 11 .debug_loc    000013b8  00000000  00000000  00007460  2**0
                  CONTENTS, READONLY, DEBUGGING
 12 .debug_ranges 000001a0  00000000  00000000  00008818  2**0
                  CONTENTS, READONLY, DEBUGGING

Disassembly of section .text:

00000000 <__vectors>:
       0:	0c 94 38 00 	jmp	0x70	; 0x70 <__ctors_end>
       4:	0c 94 55 00 	jmp	0xaa	; 0xaa <__bad_interrupt>
       8:	0c 94 ee 02 	jmp	0x5dc	; 0x5dc <__vector_2>
       c:	0c 94 55 00 	jmp	0xaa	; 0xaa <__bad_interrupt>
      10:	0c 94 55 00 	jmp	0xaa	; 0xaa <__bad_interrupt>
      14:	0c 94 55 00 	jmp	0xaa	; 0xaa <__bad_interrupt>
      18:	0c 94 55 00 	jmp	0xaa	; 0xaa <__bad_interrupt>
      1c:	0c 94 55 00 	jmp	0xaa	; 0xaa <__bad_interrupt>
      20:	0c 94 55 00 	jmp	0xaa	; 0xaa <__bad_interrupt>
      24:	0c 94 55 00 	jmp	0xaa	; 0xaa <__bad_interrupt>
      28:	0c 94 55 00 	jmp	0xaa	; 0xaa <__bad_interrupt>
      2c:	0c 94 55 00 	jmp	0xaa	; 0xaa <__bad_interrupt>
      30:	0c 94 55 00 	jmp	0xaa	; 0xaa <__bad_interrupt>
      34:	0c 94 55 00 	jmp	0xaa	; 0xaa <__bad_interrupt>
      38:	0c 94 55 00 	jmp	0xaa	; 0xaa <__bad_interrupt>
      3c:	0c 94 55 00 	jmp	0xaa	; 0xaa <__bad_interrupt>
      40:	0c 94 55 00 	jmp	0xaa	; 0xaa <__bad_interrupt>
      44:	0c 94 55 00 	jmp	0xaa	; 0xaa <__bad_interrupt>
      48:	0c 94 55 00 	jmp	0xaa	; 0xaa <__bad_interrupt>
      4c:	0c 94 55 00 	jmp	0xaa	; 0xaa <__bad_interrupt>
      50:	0c 94 55 00 	jmp	0xaa	; 0xaa <__bad_interrupt>
      54:	0c 94 55 00 	jmp	0xaa	; 0xaa <__bad_interrupt>
      58:	0c 94 55 00 	jmp	0xaa	; 0xaa <__bad_interrupt>
      5c:	0c 94 55 00 	jmp	0xaa	; 0xaa <__bad_interrupt>
      60:	0c 94 55 00 	jmp	0xaa	; 0xaa <__bad_interrupt>
      64:	0c 94 55 00 	jmp	0xaa	; 0xaa <__bad_interrupt>
      68:	0c 94 55 00 	jmp	0xaa	; 0xaa <__bad_interrupt>
      6c:	0c 94 55 00 	jmp	0xaa	; 0xaa <__bad_interrupt>

00000070 <__ctors_end>:
      70:	11 24       	eor	r1, r1
      72:	1f be       	out	0x3f, r1	; 63
      74:	cf ef       	ldi	r28, 0xFF	; 255
      76:	d4 e0       	ldi	r29, 0x04	; 4
      78:	de bf       	out	0x3e, r29	; 62
      7a:	cd bf       	out	0x3d, r28	; 61

0000007c <__do_copy_data>:
      7c:	12 e0       	ldi	r17, 0x02	; 2
      7e:	a0 e0       	ldi	r26, 0x00	; 0
      80:	b1 e0       	ldi	r27, 0x01	; 1
      82:	e0 e9       	ldi	r30, 0x90	; 144
      84:	f5 e1       	ldi	r31, 0x15	; 21
      86:	02 c0       	rjmp	.+4      	; 0x8c <__do_copy_data+0x10>
      88:	05 90       	lpm	r0, Z+
      8a:	0d 92       	st	X+, r0
      8c:	ac 3c       	cpi	r26, 0xCC	; 204
      8e:	b1 07       	cpc	r27, r17
      90:	d9 f7       	brne	.-10     	; 0x88 <__do_copy_data+0xc>

00000092 <__do_clear_bss>:
      92:	22 e0       	ldi	r18, 0x02	; 2
      94:	ac ec       	ldi	r26, 0xCC	; 204
      96:	b2 e0       	ldi	r27, 0x02	; 2
      98:	01 c0       	rjmp	.+2      	; 0x9c <.do_clear_bss_start>

0000009a <.do_clear_bss_loop>:
      9a:	1d 92       	st	X+, r1

0000009c <.do_clear_bss_start>:
      9c:	ad 3e       	cpi	r26, 0xED	; 237
      9e:	b2 07       	cpc	r27, r18
      a0:	e1 f7       	brne	.-8      	; 0x9a <.do_clear_bss_loop>
      a2:	0e 94 2e 04 	call	0x85c	; 0x85c <main>
      a6:	0c 94 c6 0a 	jmp	0x158c	; 0x158c <_exit>

000000aa <__bad_interrupt>:
      aa:	0c 94 00 00 	jmp	0	; 0x0 <__vectors>

000000ae <adc_timer>:
#include<util/delay.h>

#define OCR0_VALUE 1

void adc_timer(){						 // Timer for the ADC
	DDRD |= (1 << PD5); 
      ae:	81 b3       	in	r24, 0x11	; 17
      b0:	80 62       	ori	r24, 0x20	; 32
      b2:	81 bb       	out	0x11, r24	; 17
	TCCR1A=(1 << COM1A0);			 	 // Toggle-mode
      b4:	80 e4       	ldi	r24, 0x40	; 64
      b6:	8f bd       	out	0x2f, r24	; 47
	TCCR1B= (1 << WGM12)|(1 << CS10);	 // CTSmode, No scaler
      b8:	89 e0       	ldi	r24, 0x09	; 9
      ba:	8e bd       	out	0x2e, r24	; 46
	OCR0= 1;							 // Put OCR value
      bc:	81 e0       	ldi	r24, 0x01	; 1
      be:	81 bf       	out	0x31, r24	; 49
      c0:	08 95       	ret

000000c2 <read_adc>:
}

uint8_t read_adc(uint8_t channel){
      c2:	ef 92       	push	r14
      c4:	ff 92       	push	r15
      c6:	0f 93       	push	r16
      c8:	1f 93       	push	r17
      ca:	cf 93       	push	r28
      cc:	df 93       	push	r29
      ce:	00 d0       	rcall	.+0      	; 0xd0 <read_adc+0xe>
      d0:	00 d0       	rcall	.+0      	; 0xd2 <read_adc+0x10>
      d2:	cd b7       	in	r28, 0x3d	; 61
      d4:	de b7       	in	r29, 0x3e	; 62
      d6:	08 2f       	mov	r16, r24
	uint8_t data [4]; // Define data array for storing ADC channels
	xmem_write(0x1400,0x00,0x00); // Sends WR and CS to initiate conversion. Writes to ADC using Mux mode 0.
      d8:	40 e0       	ldi	r20, 0x00	; 0
      da:	60 e0       	ldi	r22, 0x00	; 0
      dc:	70 e0       	ldi	r23, 0x00	; 0
      de:	80 e0       	ldi	r24, 0x00	; 0
      e0:	94 e1       	ldi	r25, 0x14	; 20
      e2:	0e 94 ad 05 	call	0xb5a	; 0xb5a <xmem_write>
	#else
		//round up by default
		__ticks_dc = (uint32_t)(ceil(fabs(__tmp)));
	#endif

	__builtin_avr_delay_cycles(__ticks_dc);
      e6:	82 e5       	ldi	r24, 0x52	; 82
      e8:	8a 95       	dec	r24
      ea:	f1 f7       	brne	.-4      	; 0xe8 <read_adc+0x26>
	uint8_t t_conv = 50; // Calculates conversion time given by the data sheet
	_delay_us(t_conv); // Wait the conversion time
	
	for (uint8_t i = 0; i < 4; i++){
      ec:	10 e0       	ldi	r17, 0x00	; 0
      ee:	10 c0       	rjmp	.+32     	; 0x110 <read_adc+0x4e>
		data[i] = xmem_read(0x1400,0x00); // Reads through the 4 channels(Mux mode 0) from the ADC and stores them in the data array
      f0:	e1 2e       	mov	r14, r17
      f2:	f1 2c       	mov	r15, r1
      f4:	60 e0       	ldi	r22, 0x00	; 0
      f6:	70 e0       	ldi	r23, 0x00	; 0
      f8:	80 e0       	ldi	r24, 0x00	; 0
      fa:	94 e1       	ldi	r25, 0x14	; 20
      fc:	0e 94 b2 05 	call	0xb64	; 0xb64 <xmem_read>
     100:	e1 e0       	ldi	r30, 0x01	; 1
     102:	f0 e0       	ldi	r31, 0x00	; 0
     104:	ec 0f       	add	r30, r28
     106:	fd 1f       	adc	r31, r29
     108:	ee 0d       	add	r30, r14
     10a:	ff 1d       	adc	r31, r15
     10c:	80 83       	st	Z, r24
	uint8_t data [4]; // Define data array for storing ADC channels
	xmem_write(0x1400,0x00,0x00); // Sends WR and CS to initiate conversion. Writes to ADC using Mux mode 0.
	uint8_t t_conv = 50; // Calculates conversion time given by the data sheet
	_delay_us(t_conv); // Wait the conversion time
	
	for (uint8_t i = 0; i < 4; i++){
     10e:	1f 5f       	subi	r17, 0xFF	; 255
     110:	14 30       	cpi	r17, 0x04	; 4
     112:	70 f3       	brcs	.-36     	; 0xf0 <read_adc+0x2e>
		data[i] = xmem_read(0x1400,0x00); // Reads through the 4 channels(Mux mode 0) from the ADC and stores them in the data array
	}
	switch (channel){					// Returns the choosed channel from 0-3
     114:	01 30       	cpi	r16, 0x01	; 1
     116:	41 f0       	breq	.+16     	; 0x128 <read_adc+0x66>
     118:	28 f0       	brcs	.+10     	; 0x124 <read_adc+0x62>
     11a:	02 30       	cpi	r16, 0x02	; 2
     11c:	39 f0       	breq	.+14     	; 0x12c <read_adc+0x6a>
     11e:	03 30       	cpi	r16, 0x03	; 3
     120:	39 f0       	breq	.+14     	; 0x130 <read_adc+0x6e>
     122:	08 c0       	rjmp	.+16     	; 0x134 <read_adc+0x72>
	case 0:	// y-axis
		return data[0];
     124:	89 81       	ldd	r24, Y+1	; 0x01
     126:	07 c0       	rjmp	.+14     	; 0x136 <read_adc+0x74>
		break;
	case 1:	// x-axis
		return data[1];
     128:	8a 81       	ldd	r24, Y+2	; 0x02
     12a:	05 c0       	rjmp	.+10     	; 0x136 <read_adc+0x74>
		break;
	case 2:	// Right slider
		return data[2];
     12c:	8b 81       	ldd	r24, Y+3	; 0x03
     12e:	03 c0       	rjmp	.+6      	; 0x136 <read_adc+0x74>
		break;
	case 3:	// Left slider
		return data[3];
     130:	8c 81       	ldd	r24, Y+4	; 0x04
     132:	01 c0       	rjmp	.+2      	; 0x136 <read_adc+0x74>
		break;
	}	
	return 0;
     134:	80 e0       	ldi	r24, 0x00	; 0
} 
     136:	0f 90       	pop	r0
     138:	0f 90       	pop	r0
     13a:	0f 90       	pop	r0
     13c:	0f 90       	pop	r0
     13e:	df 91       	pop	r29
     140:	cf 91       	pop	r28
     142:	1f 91       	pop	r17
     144:	0f 91       	pop	r16
     146:	ff 90       	pop	r15
     148:	ef 90       	pop	r14
     14a:	08 95       	ret

0000014c <map>:

long map(long x, long in_min, long in_max, long out_min, long out_max) {
     14c:	4f 92       	push	r4
     14e:	5f 92       	push	r5
     150:	6f 92       	push	r6
     152:	7f 92       	push	r7
     154:	af 92       	push	r10
     156:	bf 92       	push	r11
     158:	cf 92       	push	r12
     15a:	df 92       	push	r13
     15c:	ef 92       	push	r14
     15e:	ff 92       	push	r15
     160:	0f 93       	push	r16
     162:	1f 93       	push	r17
     164:	cf 93       	push	r28
     166:	df 93       	push	r29
     168:	cd b7       	in	r28, 0x3d	; 61
     16a:	de b7       	in	r29, 0x3e	; 62
     16c:	29 01       	movw	r4, r18
     16e:	3a 01       	movw	r6, r20
	// code from https://www.arduino.cc/reference/en/language/functions/math/map/
	return (x - in_min) * (out_max - out_min) / (in_max - in_min) + out_min;
     170:	9b 01       	movw	r18, r22
     172:	ac 01       	movw	r20, r24
     174:	24 19       	sub	r18, r4
     176:	35 09       	sbc	r19, r5
     178:	46 09       	sbc	r20, r6
     17a:	57 09       	sbc	r21, r7
     17c:	89 89       	ldd	r24, Y+17	; 0x11
     17e:	9a 89       	ldd	r25, Y+18	; 0x12
     180:	ab 89       	ldd	r26, Y+19	; 0x13
     182:	bc 89       	ldd	r27, Y+20	; 0x14
     184:	bc 01       	movw	r22, r24
     186:	cd 01       	movw	r24, r26
     188:	6a 19       	sub	r22, r10
     18a:	7b 09       	sbc	r23, r11
     18c:	8c 09       	sbc	r24, r12
     18e:	9d 09       	sbc	r25, r13
     190:	0e 94 b7 05 	call	0xb6e	; 0xb6e <__mulsi3>
     194:	a8 01       	movw	r20, r16
     196:	97 01       	movw	r18, r14
     198:	24 19       	sub	r18, r4
     19a:	35 09       	sbc	r19, r5
     19c:	46 09       	sbc	r20, r6
     19e:	57 09       	sbc	r21, r7
     1a0:	0e 94 c7 05 	call	0xb8e	; 0xb8e <__divmodsi4>
     1a4:	c6 01       	movw	r24, r12
     1a6:	b5 01       	movw	r22, r10
     1a8:	62 0f       	add	r22, r18
     1aa:	73 1f       	adc	r23, r19
     1ac:	84 1f       	adc	r24, r20
     1ae:	95 1f       	adc	r25, r21
}
     1b0:	df 91       	pop	r29
     1b2:	cf 91       	pop	r28
     1b4:	1f 91       	pop	r17
     1b6:	0f 91       	pop	r16
     1b8:	ff 90       	pop	r15
     1ba:	ef 90       	pop	r14
     1bc:	df 90       	pop	r13
     1be:	cf 90       	pop	r12
     1c0:	bf 90       	pop	r11
     1c2:	af 90       	pop	r10
     1c4:	7f 90       	pop	r7
     1c6:	6f 90       	pop	r6
     1c8:	5f 90       	pop	r5
     1ca:	4f 90       	pop	r4
     1cc:	08 95       	ret

000001ce <joystick_analog_position_percentage>:

 uint8_t joystick_analog_position_percentage (uint8_t analog_value, uint8_t channel){		//Function that returns joystick position in percentage from neutral. Inputs analog value and chosed channel
     1ce:	af 92       	push	r10
     1d0:	bf 92       	push	r11
     1d2:	cf 92       	push	r12
     1d4:	df 92       	push	r13
     1d6:	ef 92       	push	r14
     1d8:	ff 92       	push	r15
     1da:	0f 93       	push	r16
     1dc:	1f 93       	push	r17
	signed int remapped;																	// Defines remapped variable
	if (channel == 0){																		// If-statement choosing which channel to map
     1de:	61 11       	cpse	r22, r1
     1e0:	41 c0       	rjmp	.+130    	; 0x264 <__EEPROM_REGION_LENGTH__+0x64>
		if (analog_value >= 167){															// If-statement that decides which side of joystick neutral to map
     1e2:	87 3a       	cpi	r24, 0xA7	; 167
     1e4:	00 f1       	brcs	.+64     	; 0x226 <__EEPROM_REGION_LENGTH__+0x26>
		remapped = map(analog_value, 160, 255, 50, 100);										// Stores mapping to variable
     1e6:	68 2f       	mov	r22, r24
     1e8:	70 e0       	ldi	r23, 0x00	; 0
     1ea:	80 e0       	ldi	r24, 0x00	; 0
     1ec:	90 e0       	ldi	r25, 0x00	; 0
     1ee:	1f 92       	push	r1
     1f0:	1f 92       	push	r1
     1f2:	1f 92       	push	r1
     1f4:	24 e6       	ldi	r18, 0x64	; 100
     1f6:	2f 93       	push	r18
     1f8:	0f 2e       	mov	r0, r31
     1fa:	f2 e3       	ldi	r31, 0x32	; 50
     1fc:	af 2e       	mov	r10, r31
     1fe:	b1 2c       	mov	r11, r1
     200:	c1 2c       	mov	r12, r1
     202:	d1 2c       	mov	r13, r1
     204:	f0 2d       	mov	r31, r0
     206:	e1 2c       	mov	r14, r1
     208:	f1 2c       	mov	r15, r1
     20a:	87 01       	movw	r16, r14
     20c:	ea 94       	dec	r14
     20e:	20 ea       	ldi	r18, 0xA0	; 160
     210:	30 e0       	ldi	r19, 0x00	; 0
     212:	40 e0       	ldi	r20, 0x00	; 0
     214:	50 e0       	ldi	r21, 0x00	; 0
     216:	0e 94 a6 00 	call	0x14c	; 0x14c <map>
     21a:	0f 90       	pop	r0
     21c:	0f 90       	pop	r0
     21e:	0f 90       	pop	r0
     220:	0f 90       	pop	r0
     222:	86 2f       	mov	r24, r22
     224:	9e c0       	rjmp	.+316    	; 0x362 <__EEPROM_REGION_LENGTH__+0x162>
		}
		else if (analog_value == 0){
     226:	88 23       	and	r24, r24
     228:	09 f4       	brne	.+2      	; 0x22c <__EEPROM_REGION_LENGTH__+0x2c>
     22a:	98 c0       	rjmp	.+304    	; 0x35c <__EEPROM_REGION_LENGTH__+0x15c>
			remapped = 0;
		}
		else{
			remapped = map(analog_value, 0, 159, 0, 50);									// Stores mapping to variable
     22c:	68 2f       	mov	r22, r24
     22e:	70 e0       	ldi	r23, 0x00	; 0
     230:	80 e0       	ldi	r24, 0x00	; 0
     232:	90 e0       	ldi	r25, 0x00	; 0
     234:	1f 92       	push	r1
     236:	1f 92       	push	r1
     238:	1f 92       	push	r1
     23a:	22 e3       	ldi	r18, 0x32	; 50
     23c:	2f 93       	push	r18
     23e:	a1 2c       	mov	r10, r1
     240:	b1 2c       	mov	r11, r1
     242:	65 01       	movw	r12, r10
     244:	1f e9       	ldi	r17, 0x9F	; 159
     246:	e1 2e       	mov	r14, r17
     248:	f1 2c       	mov	r15, r1
     24a:	00 e0       	ldi	r16, 0x00	; 0
     24c:	10 e0       	ldi	r17, 0x00	; 0
     24e:	20 e0       	ldi	r18, 0x00	; 0
     250:	30 e0       	ldi	r19, 0x00	; 0
     252:	a9 01       	movw	r20, r18
     254:	0e 94 a6 00 	call	0x14c	; 0x14c <map>
     258:	0f 90       	pop	r0
     25a:	0f 90       	pop	r0
     25c:	0f 90       	pop	r0
     25e:	0f 90       	pop	r0
     260:	86 2f       	mov	r24, r22
     262:	7f c0       	rjmp	.+254    	; 0x362 <__EEPROM_REGION_LENGTH__+0x162>
		}	
	}
	else if(channel == 1){
     264:	61 30       	cpi	r22, 0x01	; 1
     266:	f1 f5       	brne	.+124    	; 0x2e4 <__EEPROM_REGION_LENGTH__+0xe4>
		if (analog_value >= 167){															// If-statement that decides which side of joystick neutral to map
     268:	87 3a       	cpi	r24, 0xA7	; 167
     26a:	00 f1       	brcs	.+64     	; 0x2ac <__EEPROM_REGION_LENGTH__+0xac>
		remapped = map(analog_value, 163, 255, 50, 100);										// Stores mapping to variable
     26c:	68 2f       	mov	r22, r24
     26e:	70 e0       	ldi	r23, 0x00	; 0
     270:	80 e0       	ldi	r24, 0x00	; 0
     272:	90 e0       	ldi	r25, 0x00	; 0
     274:	1f 92       	push	r1
     276:	1f 92       	push	r1
     278:	1f 92       	push	r1
     27a:	24 e6       	ldi	r18, 0x64	; 100
     27c:	2f 93       	push	r18
     27e:	0f 2e       	mov	r0, r31
     280:	f2 e3       	ldi	r31, 0x32	; 50
     282:	af 2e       	mov	r10, r31
     284:	b1 2c       	mov	r11, r1
     286:	c1 2c       	mov	r12, r1
     288:	d1 2c       	mov	r13, r1
     28a:	f0 2d       	mov	r31, r0
     28c:	e1 2c       	mov	r14, r1
     28e:	f1 2c       	mov	r15, r1
     290:	87 01       	movw	r16, r14
     292:	ea 94       	dec	r14
     294:	23 ea       	ldi	r18, 0xA3	; 163
     296:	30 e0       	ldi	r19, 0x00	; 0
     298:	40 e0       	ldi	r20, 0x00	; 0
     29a:	50 e0       	ldi	r21, 0x00	; 0
     29c:	0e 94 a6 00 	call	0x14c	; 0x14c <map>
     2a0:	0f 90       	pop	r0
     2a2:	0f 90       	pop	r0
     2a4:	0f 90       	pop	r0
     2a6:	0f 90       	pop	r0
     2a8:	86 2f       	mov	r24, r22
     2aa:	5b c0       	rjmp	.+182    	; 0x362 <__EEPROM_REGION_LENGTH__+0x162>
		}
		else{
			remapped = map(analog_value, 0, 162, 0, 50);									// Stores mapping to variable
     2ac:	68 2f       	mov	r22, r24
     2ae:	70 e0       	ldi	r23, 0x00	; 0
     2b0:	80 e0       	ldi	r24, 0x00	; 0
     2b2:	90 e0       	ldi	r25, 0x00	; 0
     2b4:	1f 92       	push	r1
     2b6:	1f 92       	push	r1
     2b8:	1f 92       	push	r1
     2ba:	22 e3       	ldi	r18, 0x32	; 50
     2bc:	2f 93       	push	r18
     2be:	a1 2c       	mov	r10, r1
     2c0:	b1 2c       	mov	r11, r1
     2c2:	65 01       	movw	r12, r10
     2c4:	12 ea       	ldi	r17, 0xA2	; 162
     2c6:	e1 2e       	mov	r14, r17
     2c8:	f1 2c       	mov	r15, r1
     2ca:	00 e0       	ldi	r16, 0x00	; 0
     2cc:	10 e0       	ldi	r17, 0x00	; 0
     2ce:	20 e0       	ldi	r18, 0x00	; 0
     2d0:	30 e0       	ldi	r19, 0x00	; 0
     2d2:	a9 01       	movw	r20, r18
     2d4:	0e 94 a6 00 	call	0x14c	; 0x14c <map>
     2d8:	0f 90       	pop	r0
     2da:	0f 90       	pop	r0
     2dc:	0f 90       	pop	r0
     2de:	0f 90       	pop	r0
     2e0:	86 2f       	mov	r24, r22
     2e2:	3f c0       	rjmp	.+126    	; 0x362 <__EEPROM_REGION_LENGTH__+0x162>
		}	
	}
	else if(channel == 2){
     2e4:	62 30       	cpi	r22, 0x02	; 2
     2e6:	e1 f4       	brne	.+56     	; 0x320 <__EEPROM_REGION_LENGTH__+0x120>
		remapped = map(analog_value, 10, 255, 0, 100);										// Stores mapping to variable
     2e8:	68 2f       	mov	r22, r24
     2ea:	70 e0       	ldi	r23, 0x00	; 0
     2ec:	80 e0       	ldi	r24, 0x00	; 0
     2ee:	90 e0       	ldi	r25, 0x00	; 0
     2f0:	1f 92       	push	r1
     2f2:	1f 92       	push	r1
     2f4:	1f 92       	push	r1
     2f6:	24 e6       	ldi	r18, 0x64	; 100
     2f8:	2f 93       	push	r18
     2fa:	a1 2c       	mov	r10, r1
     2fc:	b1 2c       	mov	r11, r1
     2fe:	65 01       	movw	r12, r10
     300:	e1 2c       	mov	r14, r1
     302:	f1 2c       	mov	r15, r1
     304:	87 01       	movw	r16, r14
     306:	ea 94       	dec	r14
     308:	2a e0       	ldi	r18, 0x0A	; 10
     30a:	30 e0       	ldi	r19, 0x00	; 0
     30c:	40 e0       	ldi	r20, 0x00	; 0
     30e:	50 e0       	ldi	r21, 0x00	; 0
     310:	0e 94 a6 00 	call	0x14c	; 0x14c <map>
     314:	0f 90       	pop	r0
     316:	0f 90       	pop	r0
     318:	0f 90       	pop	r0
     31a:	0f 90       	pop	r0
     31c:	86 2f       	mov	r24, r22
     31e:	21 c0       	rjmp	.+66     	; 0x362 <__EEPROM_REGION_LENGTH__+0x162>
	}
	else if(channel == 3){
     320:	63 30       	cpi	r22, 0x03	; 3
     322:	f1 f4       	brne	.+60     	; 0x360 <__EEPROM_REGION_LENGTH__+0x160>
		remapped = map(analog_value, 12, 255, 0, 100);										// Stores mapping to variable
     324:	68 2f       	mov	r22, r24
     326:	70 e0       	ldi	r23, 0x00	; 0
     328:	80 e0       	ldi	r24, 0x00	; 0
     32a:	90 e0       	ldi	r25, 0x00	; 0
     32c:	1f 92       	push	r1
     32e:	1f 92       	push	r1
     330:	1f 92       	push	r1
     332:	24 e6       	ldi	r18, 0x64	; 100
     334:	2f 93       	push	r18
     336:	a1 2c       	mov	r10, r1
     338:	b1 2c       	mov	r11, r1
     33a:	65 01       	movw	r12, r10
     33c:	e1 2c       	mov	r14, r1
     33e:	f1 2c       	mov	r15, r1
     340:	87 01       	movw	r16, r14
     342:	ea 94       	dec	r14
     344:	2c e0       	ldi	r18, 0x0C	; 12
     346:	30 e0       	ldi	r19, 0x00	; 0
     348:	40 e0       	ldi	r20, 0x00	; 0
     34a:	50 e0       	ldi	r21, 0x00	; 0
     34c:	0e 94 a6 00 	call	0x14c	; 0x14c <map>
     350:	0f 90       	pop	r0
     352:	0f 90       	pop	r0
     354:	0f 90       	pop	r0
     356:	0f 90       	pop	r0
     358:	86 2f       	mov	r24, r22
     35a:	03 c0       	rjmp	.+6      	; 0x362 <__EEPROM_REGION_LENGTH__+0x162>
	if (channel == 0){																		// If-statement choosing which channel to map
		if (analog_value >= 167){															// If-statement that decides which side of joystick neutral to map
		remapped = map(analog_value, 160, 255, 50, 100);										// Stores mapping to variable
		}
		else if (analog_value == 0){
			remapped = 0;
     35c:	80 e0       	ldi	r24, 0x00	; 0
		remapped = map(analog_value, 12, 255, 0, 100);										// Stores mapping to variable
	}
	else{
		return 0;										
	}
	return remapped;																		// Returns variable, based on the if- statements
     35e:	01 c0       	rjmp	.+2      	; 0x362 <__EEPROM_REGION_LENGTH__+0x162>
	}
	else if(channel == 3){
		remapped = map(analog_value, 12, 255, 0, 100);										// Stores mapping to variable
	}
	else{
		return 0;										
     360:	80 e0       	ldi	r24, 0x00	; 0
	}
	return remapped;																		// Returns variable, based on the if- statements
}
     362:	1f 91       	pop	r17
     364:	0f 91       	pop	r16
     366:	ff 90       	pop	r15
     368:	ef 90       	pop	r14
     36a:	df 90       	pop	r13
     36c:	cf 90       	pop	r12
     36e:	bf 90       	pop	r11
     370:	af 90       	pop	r10
     372:	08 95       	ret

00000374 <button_init>:
#include <avr/io.h>

void button_init( void ){
	SFIOR &= ~(1 << PUD);
     374:	80 b7       	in	r24, 0x30	; 48
     376:	8b 7f       	andi	r24, 0xFB	; 251
     378:	80 bf       	out	0x30, r24	; 48
	DDRB &= ~(1<<PB2); // PIN B2 as input
     37a:	87 b3       	in	r24, 0x17	; 23
     37c:	8b 7f       	andi	r24, 0xFB	; 251
     37e:	87 bb       	out	0x17, r24	; 23
	PORTB |= (1<<PB2); // Enable internal pull up on PB2
     380:	88 b3       	in	r24, 0x18	; 24
     382:	84 60       	ori	r24, 0x04	; 4
     384:	88 bb       	out	0x18, r24	; 24
     386:	08 95       	ret

00000388 <can_init>:
#include "can_driver.h"
#include "mcp2512.h"

uint8_t interrupt_list; 

void can_init( void ){
     388:	cf 93       	push	r28
     38a:	df 93       	push	r29
     38c:	1f 92       	push	r1
     38e:	cd b7       	in	r28, 0x3d	; 61
     390:	de b7       	in	r29, 0x3e	; 62
	mcp2515_init();
     392:	0e 94 ce 04 	call	0x99c	; 0x99c <mcp2515_init>
	
	DDRB |= (1 << PB3);
     396:	87 b3       	in	r24, 0x17	; 23
     398:	88 60       	ori	r24, 0x08	; 8
     39a:	87 bb       	out	0x17, r24	; 23
	
	mcp2515_write(MCP_CNF1, 0b01000011); // SJW = 1 BRP = 3 -> Baudrate 125 kHz Tq = 500
     39c:	63 e4       	ldi	r22, 0x43	; 67
     39e:	8a e2       	ldi	r24, 0x2A	; 42
     3a0:	0e 94 68 04 	call	0x8d0	; 0x8d0 <mcp2515_write>
	mcp2515_write(MCP_CNF2, 0b10110001); // NOE MER PS1 = 6 and PRSEG = 1
     3a4:	61 eb       	ldi	r22, 0xB1	; 177
     3a6:	89 e2       	ldi	r24, 0x29	; 41
     3a8:	0e 94 68 04 	call	0x8d0	; 0x8d0 <mcp2515_write>
	mcp2515_write(MCP_CNF3, 0b00000101); // PS2 = 5
     3ac:	65 e0       	ldi	r22, 0x05	; 5
     3ae:	88 e2       	ldi	r24, 0x28	; 40
     3b0:	0e 94 68 04 	call	0x8d0	; 0x8d0 <mcp2515_write>
	
	
	mcp2515_write(MCP_CANINTE,0b00000011);		// Enable interrupt on Receive buffer 0 and 1
     3b4:	63 e0       	ldi	r22, 0x03	; 3
     3b6:	8b e2       	ldi	r24, 0x2B	; 43
     3b8:	0e 94 68 04 	call	0x8d0	; 0x8d0 <mcp2515_write>
	#else
		//round up by default
		__ticks_dc = (uint32_t)(ceil(fabs(__tmp)));
	#endif

	__builtin_avr_delay_cycles(__ticks_dc);
     3bc:	8f ef       	ldi	r24, 0xFF	; 255
     3be:	9f e8       	ldi	r25, 0x8F	; 143
     3c0:	01 97       	sbiw	r24, 0x01	; 1
     3c2:	f1 f7       	brne	.-4      	; 0x3c0 <can_init+0x38>
     3c4:	00 c0       	rjmp	.+0      	; 0x3c6 <can_init+0x3e>
     3c6:	00 00       	nop
	_delay_ms(30);
	mcp2515_bit_modify(MCP_CANINTF,0xFF,0x00);
     3c8:	40 e0       	ldi	r20, 0x00	; 0
     3ca:	6f ef       	ldi	r22, 0xFF	; 255
     3cc:	8c e2       	ldi	r24, 0x2C	; 44
     3ce:	0e 94 95 04 	call	0x92a	; 0x92a <mcp2515_bit_modify>
     3d2:	8f ef       	ldi	r24, 0xFF	; 255
     3d4:	9f e8       	ldi	r25, 0x8F	; 143
     3d6:	01 97       	sbiw	r24, 0x01	; 1
     3d8:	f1 f7       	brne	.-4      	; 0x3d6 <can_init+0x4e>
     3da:	00 c0       	rjmp	.+0      	; 0x3dc <can_init+0x54>
     3dc:	00 00       	nop
	_delay_ms(30);
	
	mcp2515_write(MCP_RXB0CTRL, 0xFF);			// Turn filters off
     3de:	6f ef       	ldi	r22, 0xFF	; 255
     3e0:	80 e6       	ldi	r24, 0x60	; 96
     3e2:	0e 94 68 04 	call	0x8d0	; 0x8d0 <mcp2515_write>
	mcp2515_write(MCP_RXB1CTRL, 0xFF);			// Turn filters off
     3e6:	6f ef       	ldi	r22, 0xFF	; 255
     3e8:	80 e7       	ldi	r24, 0x70	; 112
     3ea:	0e 94 68 04 	call	0x8d0	; 0x8d0 <mcp2515_write>
	
	
	cli();
     3ee:	f8 94       	cli
	MCUCR |= (1<<ISC01);
     3f0:	85 b7       	in	r24, 0x35	; 53
     3f2:	82 60       	ori	r24, 0x02	; 2
     3f4:	85 bf       	out	0x35, r24	; 53
	MCUCR &= (~(1 << ISC00));
     3f6:	85 b7       	in	r24, 0x35	; 53
     3f8:	8e 7f       	andi	r24, 0xFE	; 254
     3fa:	85 bf       	out	0x35, r24	; 53
	GICR |= (1<<INT1);
     3fc:	8b b7       	in	r24, 0x3b	; 59
     3fe:	80 68       	ori	r24, 0x80	; 128
     400:	8b bf       	out	0x3b, r24	; 59
	DDRD &= ~(1 << PD3);
     402:	81 b3       	in	r24, 0x11	; 17
     404:	87 7f       	andi	r24, 0xF7	; 247
     406:	81 bb       	out	0x11, r24	; 17
	sei();
     408:	78 94       	sei
     40a:	8f ef       	ldi	r24, 0xFF	; 255
     40c:	9f e8       	ldi	r25, 0x8F	; 143
     40e:	01 97       	sbiw	r24, 0x01	; 1
     410:	f1 f7       	brne	.-4      	; 0x40e <__DATA_REGION_LENGTH__+0xe>
     412:	00 c0       	rjmp	.+0      	; 0x414 <__DATA_REGION_LENGTH__+0x14>
     414:	00 00       	nop
	
	_delay_ms(30);
	mcp2515_write(MCP_CANCTRL,MODE_NORMAL);		// Normal
     416:	60 e0       	ldi	r22, 0x00	; 0
     418:	8f e0       	ldi	r24, 0x0F	; 15
     41a:	0e 94 68 04 	call	0x8d0	; 0x8d0 <mcp2515_write>
	// TODO: Comment what these do

	
	
	
	uint8_t val = 1;
     41e:	81 e0       	ldi	r24, 0x01	; 1
     420:	89 83       	std	Y+1, r24	; 0x01
	mcp_read_pointer( MCP_CANSTAT, &val );
     422:	be 01       	movw	r22, r28
     424:	6f 5f       	subi	r22, 0xFF	; 255
     426:	7f 4f       	sbci	r23, 0xFF	; 255
     428:	8e e0       	ldi	r24, 0x0E	; 14
     42a:	0e 94 b7 04 	call	0x96e	; 0x96e <mcp_read_pointer>
	
	if ( ( val & MODE_MASK ) == MODE_LOOPBACK )
     42e:	89 81       	ldd	r24, Y+1	; 0x01
     430:	80 7e       	andi	r24, 0xE0	; 224
     432:	80 34       	cpi	r24, 0x40	; 64
     434:	21 f4       	brne	.+8      	; 0x43e <__DATA_REGION_LENGTH__+0x3e>
	{
				printf (" MCP2515 is IN loopback mode after init !\r\n");
     436:	8a e0       	ldi	r24, 0x0A	; 10
     438:	91 e0       	ldi	r25, 0x01	; 1
     43a:	0e 94 8a 06 	call	0xd14	; 0xd14 <puts>
	}
	if ( ( val & MODE_MASK ) == MODE_NORMAL )
     43e:	89 81       	ldd	r24, Y+1	; 0x01
     440:	80 7e       	andi	r24, 0xE0	; 224
     442:	21 f4       	brne	.+8      	; 0x44c <__DATA_REGION_LENGTH__+0x4c>
	{
		printf (" MCP2515 is IN NORMAL mode after init !\r\n");
     444:	85 e3       	ldi	r24, 0x35	; 53
     446:	91 e0       	ldi	r25, 0x01	; 1
     448:	0e 94 8a 06 	call	0xd14	; 0xd14 <puts>
	}	
}
     44c:	0f 90       	pop	r0
     44e:	df 91       	pop	r29
     450:	cf 91       	pop	r28
     452:	08 95       	ret

00000454 <can_send>:




void can_send( message send ){
     454:	ef 92       	push	r14
     456:	ff 92       	push	r15
     458:	0f 93       	push	r16
     45a:	1f 93       	push	r17
     45c:	cf 93       	push	r28
     45e:	df 93       	push	r29
     460:	cd b7       	in	r28, 0x3d	; 61
     462:	de b7       	in	r29, 0x3e	; 62
     464:	2b 97       	sbiw	r28, 0x0b	; 11
     466:	0f b6       	in	r0, 0x3f	; 63
     468:	f8 94       	cli
     46a:	de bf       	out	0x3e, r29	; 62
     46c:	0f be       	out	0x3f, r0	; 63
     46e:	cd bf       	out	0x3d, r28	; 61
     470:	e9 82       	std	Y+1, r14	; 0x01
     472:	fa 82       	std	Y+2, r15	; 0x02
     474:	0b 83       	std	Y+3, r16	; 0x03
     476:	1c 83       	std	Y+4, r17	; 0x04
     478:	2d 83       	std	Y+5, r18	; 0x05
     47a:	3e 83       	std	Y+6, r19	; 0x06
     47c:	4f 83       	std	Y+7, r20	; 0x07
     47e:	58 87       	std	Y+8, r21	; 0x08
     480:	69 87       	std	Y+9, r22	; 0x09
     482:	7a 87       	std	Y+10, r23	; 0x0a
     484:	8b 87       	std	Y+11, r24	; 0x0b

	mcp2515_write(MCP_TXB0SIDH, (send.id&0b11111111000) >> 3);	// id 8/11 bits
     486:	09 81       	ldd	r16, Y+1	; 0x01
     488:	1a 81       	ldd	r17, Y+2	; 0x02
     48a:	b8 01       	movw	r22, r16
     48c:	68 7f       	andi	r22, 0xF8	; 248
     48e:	77 70       	andi	r23, 0x07	; 7
     490:	76 95       	lsr	r23
     492:	67 95       	ror	r22
     494:	76 95       	lsr	r23
     496:	67 95       	ror	r22
     498:	76 95       	lsr	r23
     49a:	67 95       	ror	r22
     49c:	81 e3       	ldi	r24, 0x31	; 49
     49e:	0e 94 68 04 	call	0x8d0	; 0x8d0 <mcp2515_write>
	mcp2515_write(MCP_TXB0SIDL, (send.id&0b111) << 5);			    // id 3/11 bits from LSB
     4a2:	60 2f       	mov	r22, r16
     4a4:	62 95       	swap	r22
     4a6:	66 0f       	add	r22, r22
     4a8:	60 7e       	andi	r22, 0xE0	; 224
     4aa:	82 e3       	ldi	r24, 0x32	; 50
     4ac:	0e 94 68 04 	call	0x8d0	; 0x8d0 <mcp2515_write>
	//printf("%x\r\n",idlow);
	//printf("ID HIGH\t");
	//printf("%x\r\n",idhigh);
	
	
	mcp2515_write(MCP_TXB0DLC, send.length);					// DLC
     4b0:	fb 80       	ldd	r15, Y+3	; 0x03
     4b2:	6f 2d       	mov	r22, r15
     4b4:	85 e3       	ldi	r24, 0x35	; 53
     4b6:	0e 94 68 04 	call	0x8d0	; 0x8d0 <mcp2515_write>
	
	for (int i = 0; i < send.length; i++){
     4ba:	00 e0       	ldi	r16, 0x00	; 0
     4bc:	10 e0       	ldi	r17, 0x00	; 0
     4be:	0d c0       	rjmp	.+26     	; 0x4da <can_send+0x86>
		mcp2515_write(MCP_TXB0D0+i, send.data[i]);				// buffer
     4c0:	e4 e0       	ldi	r30, 0x04	; 4
     4c2:	f0 e0       	ldi	r31, 0x00	; 0
     4c4:	ec 0f       	add	r30, r28
     4c6:	fd 1f       	adc	r31, r29
     4c8:	e0 0f       	add	r30, r16
     4ca:	f1 1f       	adc	r31, r17
     4cc:	60 81       	ld	r22, Z
     4ce:	86 e3       	ldi	r24, 0x36	; 54
     4d0:	80 0f       	add	r24, r16
     4d2:	0e 94 68 04 	call	0x8d0	; 0x8d0 <mcp2515_write>
	//printf("%x\r\n",idhigh);
	
	
	mcp2515_write(MCP_TXB0DLC, send.length);					// DLC
	
	for (int i = 0; i < send.length; i++){
     4d6:	0f 5f       	subi	r16, 0xFF	; 255
     4d8:	1f 4f       	sbci	r17, 0xFF	; 255
     4da:	8f 2d       	mov	r24, r15
     4dc:	90 e0       	ldi	r25, 0x00	; 0
     4de:	08 17       	cp	r16, r24
     4e0:	19 07       	cpc	r17, r25
     4e2:	74 f3       	brlt	.-36     	; 0x4c0 <can_send+0x6c>
		mcp2515_write(MCP_TXB0D0+i, send.data[i]);				// buffer
	}
	
	mcp2515_rts(0);												// Request to send. Sends buffer if available
     4e4:	80 e0       	ldi	r24, 0x00	; 0
     4e6:	0e 94 7c 04 	call	0x8f8	; 0x8f8 <mcp2515_rts>
}
     4ea:	2b 96       	adiw	r28, 0x0b	; 11
     4ec:	0f b6       	in	r0, 0x3f	; 63
     4ee:	f8 94       	cli
     4f0:	de bf       	out	0x3e, r29	; 62
     4f2:	0f be       	out	0x3f, r0	; 63
     4f4:	cd bf       	out	0x3d, r28	; 61
     4f6:	df 91       	pop	r29
     4f8:	cf 91       	pop	r28
     4fa:	1f 91       	pop	r17
     4fc:	0f 91       	pop	r16
     4fe:	ff 90       	pop	r15
     500:	ef 90       	pop	r14
     502:	08 95       	ret

00000504 <can_receive>:
		mcp2515_bit_modify(MCP_CANINTF, 0b00000010, 0);
	}
}


message can_receive( uint8_t buffer ){
     504:	ff 92       	push	r15
     506:	0f 93       	push	r16
     508:	1f 93       	push	r17
     50a:	cf 93       	push	r28
     50c:	df 93       	push	r29
     50e:	8c 01       	movw	r16, r24
	message receive;
	
	if (buffer == 0){
     510:	61 11       	cpse	r22, r1
     512:	2e c0       	rjmp	.+92     	; 0x570 <can_receive+0x6c>
		uint8_t id_low = 0b11100000 & mcp2515_read(MCP_RXB0SIDL);			// read id 3/11 bits from LSB
     514:	82 e6       	ldi	r24, 0x62	; 98
     516:	0e 94 56 04 	call	0x8ac	; 0x8ac <mcp2515_read>
     51a:	c8 2f       	mov	r28, r24
     51c:	c0 7e       	andi	r28, 0xE0	; 224
		uint8_t id_high = mcp2515_read(MCP_RXB0SIDH);			// read id 8/11 bits from MSB
     51e:	81 e6       	ldi	r24, 0x61	; 97
     520:	0e 94 56 04 	call	0x8ac	; 0x8ac <mcp2515_read>
		receive.id = (id_high << 3) | (id_low >> 5);
     524:	90 e0       	ldi	r25, 0x00	; 0
     526:	88 0f       	add	r24, r24
     528:	99 1f       	adc	r25, r25
     52a:	88 0f       	add	r24, r24
     52c:	99 1f       	adc	r25, r25
     52e:	88 0f       	add	r24, r24
     530:	99 1f       	adc	r25, r25
     532:	c2 95       	swap	r28
     534:	c6 95       	lsr	r28
     536:	c7 70       	andi	r28, 0x07	; 7
     538:	8c 2b       	or	r24, r28
     53a:	f8 01       	movw	r30, r16
     53c:	91 83       	std	Z+1, r25	; 0x01
     53e:	80 83       	st	Z, r24
	
		receive.length = mcp2515_read(MCP_RXB0DLC);				// DLC
     540:	85 e6       	ldi	r24, 0x65	; 101
     542:	0e 94 56 04 	call	0x8ac	; 0x8ac <mcp2515_read>
     546:	f8 2e       	mov	r15, r24
     548:	f8 01       	movw	r30, r16
     54a:	82 83       	std	Z+2, r24	; 0x02

		for (int i = 0; i < receive.length; i++){
     54c:	c0 e0       	ldi	r28, 0x00	; 0
     54e:	d0 e0       	ldi	r29, 0x00	; 0
     550:	09 c0       	rjmp	.+18     	; 0x564 <can_receive+0x60>
			receive.data[i] = mcp2515_read(MCP_RXB0D0+(uint8_t) i);		// read from buffer 0
     552:	8c 2f       	mov	r24, r28
     554:	8a 59       	subi	r24, 0x9A	; 154
     556:	0e 94 56 04 	call	0x8ac	; 0x8ac <mcp2515_read>
     55a:	f8 01       	movw	r30, r16
     55c:	ec 0f       	add	r30, r28
     55e:	fd 1f       	adc	r31, r29
     560:	83 83       	std	Z+3, r24	; 0x03
		uint8_t id_high = mcp2515_read(MCP_RXB0SIDH);			// read id 8/11 bits from MSB
		receive.id = (id_high << 3) | (id_low >> 5);
	
		receive.length = mcp2515_read(MCP_RXB0DLC);				// DLC

		for (int i = 0; i < receive.length; i++){
     562:	21 96       	adiw	r28, 0x01	; 1
     564:	8f 2d       	mov	r24, r15
     566:	90 e0       	ldi	r25, 0x00	; 0
     568:	c8 17       	cp	r28, r24
     56a:	d9 07       	cpc	r29, r25
     56c:	94 f3       	brlt	.-28     	; 0x552 <can_receive+0x4e>
     56e:	2f c0       	rjmp	.+94     	; 0x5ce <can_receive+0xca>
			receive.data[i] = mcp2515_read(MCP_RXB0D0+(uint8_t) i);		// read from buffer 0
			}
	}
	
	else if (buffer == 1){
     570:	61 30       	cpi	r22, 0x01	; 1
     572:	69 f5       	brne	.+90     	; 0x5ce <can_receive+0xca>
		uint8_t id_low = 0b11100000 & mcp2515_read(MCP_RXB1SIDL);			// read id 3/11 bits from LSB
     574:	82 e7       	ldi	r24, 0x72	; 114
     576:	0e 94 56 04 	call	0x8ac	; 0x8ac <mcp2515_read>
     57a:	c8 2f       	mov	r28, r24
     57c:	c0 7e       	andi	r28, 0xE0	; 224
		uint8_t id_high = mcp2515_read(MCP_RXB1SIDH);			// read id 8/11 bits from MSB
     57e:	81 e7       	ldi	r24, 0x71	; 113
     580:	0e 94 56 04 	call	0x8ac	; 0x8ac <mcp2515_read>
		receive.id = (id_high << 3) | (id_low >> 5);
     584:	90 e0       	ldi	r25, 0x00	; 0
     586:	88 0f       	add	r24, r24
     588:	99 1f       	adc	r25, r25
     58a:	88 0f       	add	r24, r24
     58c:	99 1f       	adc	r25, r25
     58e:	88 0f       	add	r24, r24
     590:	99 1f       	adc	r25, r25
     592:	c2 95       	swap	r28
     594:	c6 95       	lsr	r28
     596:	c7 70       	andi	r28, 0x07	; 7
     598:	8c 2b       	or	r24, r28
     59a:	f8 01       	movw	r30, r16
     59c:	91 83       	std	Z+1, r25	; 0x01
     59e:	80 83       	st	Z, r24
		
		receive.length = mcp2515_read(MCP_RXB1DLC);				// DLC
     5a0:	85 e7       	ldi	r24, 0x75	; 117
     5a2:	0e 94 56 04 	call	0x8ac	; 0x8ac <mcp2515_read>
     5a6:	f8 2e       	mov	r15, r24
     5a8:	f8 01       	movw	r30, r16
     5aa:	82 83       	std	Z+2, r24	; 0x02

		for (int i = 0; i < receive.length; i++){
     5ac:	c0 e0       	ldi	r28, 0x00	; 0
     5ae:	d0 e0       	ldi	r29, 0x00	; 0
     5b0:	09 c0       	rjmp	.+18     	; 0x5c4 <can_receive+0xc0>
			receive.data[i] = mcp2515_read(MCP_RXB1D0+i);		// read from buffer 0
     5b2:	8c 2f       	mov	r24, r28
     5b4:	8a 58       	subi	r24, 0x8A	; 138
     5b6:	0e 94 56 04 	call	0x8ac	; 0x8ac <mcp2515_read>
     5ba:	f8 01       	movw	r30, r16
     5bc:	ec 0f       	add	r30, r28
     5be:	fd 1f       	adc	r31, r29
     5c0:	83 83       	std	Z+3, r24	; 0x03
		uint8_t id_high = mcp2515_read(MCP_RXB1SIDH);			// read id 8/11 bits from MSB
		receive.id = (id_high << 3) | (id_low >> 5);
		
		receive.length = mcp2515_read(MCP_RXB1DLC);				// DLC

		for (int i = 0; i < receive.length; i++){
     5c2:	21 96       	adiw	r28, 0x01	; 1
     5c4:	8f 2d       	mov	r24, r15
     5c6:	90 e0       	ldi	r25, 0x00	; 0
     5c8:	c8 17       	cp	r28, r24
     5ca:	d9 07       	cpc	r29, r25
     5cc:	94 f3       	brlt	.-28     	; 0x5b2 <can_receive+0xae>
			receive.data[i] = mcp2515_read(MCP_RXB1D0+i);		// read from buffer 0
		}
	}
	return receive;
     5ce:	c8 01       	movw	r24, r16
     5d0:	df 91       	pop	r29
     5d2:	cf 91       	pop	r28
     5d4:	1f 91       	pop	r17
     5d6:	0f 91       	pop	r16
     5d8:	ff 90       	pop	r15
     5da:	08 95       	ret

000005dc <__vector_2>:
	mcp2515_rts(0);												// Request to send. Sends buffer if available
}



ISR(INT1_vect){
     5dc:	1f 92       	push	r1
     5de:	0f 92       	push	r0
     5e0:	0f b6       	in	r0, 0x3f	; 63
     5e2:	0f 92       	push	r0
     5e4:	11 24       	eor	r1, r1
     5e6:	1f 93       	push	r17
     5e8:	2f 93       	push	r18
     5ea:	3f 93       	push	r19
     5ec:	4f 93       	push	r20
     5ee:	5f 93       	push	r21
     5f0:	6f 93       	push	r22
     5f2:	7f 93       	push	r23
     5f4:	8f 93       	push	r24
     5f6:	9f 93       	push	r25
     5f8:	af 93       	push	r26
     5fa:	bf 93       	push	r27
     5fc:	ef 93       	push	r30
     5fe:	ff 93       	push	r31
     600:	cf 93       	push	r28
     602:	df 93       	push	r29
     604:	cd b7       	in	r28, 0x3d	; 61
     606:	de b7       	in	r29, 0x3e	; 62
     608:	2b 97       	sbiw	r28, 0x0b	; 11
     60a:	de bf       	out	0x3e, r29	; 62
     60c:	cd bf       	out	0x3d, r28	; 61
	uint8_t interrupt_list[1] = {0};
	uint8_t interrupt_flag = mcp2515_read(MCP_CANINTF);
     60e:	8c e2       	ldi	r24, 0x2C	; 44
     610:	0e 94 56 04 	call	0x8ac	; 0x8ac <mcp2515_read>
	interrupt_list[0] = (interrupt_flag & MCP_RX0IF);	// Checks if Receive Buffer 0 is full by bit masking  01 & 01 = 01
	interrupt_list[1] = (interrupt_flag & MCP_RX1IF);	// Checks if Receive Buffer 1 is full by bit masking  01 & 01 = 01
     614:	98 2f       	mov	r25, r24
     616:	92 70       	andi	r25, 0x02	; 2
	
	if (interrupt_list[0]){
     618:	80 ff       	sbrs	r24, 0
     61a:	4c c0       	rjmp	.+152    	; 0x6b4 <__vector_2+0xd8>
		message1 = can_receive(0);
     61c:	60 e0       	ldi	r22, 0x00	; 0
     61e:	ce 01       	movw	r24, r28
     620:	01 96       	adiw	r24, 0x01	; 1
     622:	0e 94 82 02 	call	0x504	; 0x504 <can_receive>
     626:	8b e0       	ldi	r24, 0x0B	; 11
     628:	fe 01       	movw	r30, r28
     62a:	31 96       	adiw	r30, 0x01	; 1
     62c:	ac ec       	ldi	r26, 0xCC	; 204
     62e:	b2 e0       	ldi	r27, 0x02	; 2
     630:	01 90       	ld	r0, Z+
     632:	0d 92       	st	X+, r0
     634:	8a 95       	dec	r24
     636:	e1 f7       	brne	.-8      	; 0x630 <__vector_2+0x54>
		//printf("I_L 0\r\n");
		//printf("%i\t",message1.length);
		printf("\r\n################# NEW MESSAGE ###########\r\n");
     638:	8e e5       	ldi	r24, 0x5E	; 94
     63a:	91 e0       	ldi	r25, 0x01	; 1
     63c:	0e 94 8a 06 	call	0xd14	; 0xd14 <puts>
		printf("Received message on buffer 1:\t");
     640:	8b e8       	ldi	r24, 0x8B	; 139
     642:	91 e0       	ldi	r25, 0x01	; 1
     644:	9f 93       	push	r25
     646:	8f 93       	push	r24
     648:	0e 94 6d 06 	call	0xcda	; 0xcda <printf>
		for (uint8_t i = 0; i < message1.length; i++ )
     64c:	0f 90       	pop	r0
     64e:	0f 90       	pop	r0
     650:	10 e0       	ldi	r17, 0x00	; 0
     652:	09 c0       	rjmp	.+18     	; 0x666 <__vector_2+0x8a>
		{
			printf("%c",message1.data[i]);
     654:	e1 2f       	mov	r30, r17
     656:	f0 e0       	ldi	r31, 0x00	; 0
     658:	e4 53       	subi	r30, 0x34	; 52
     65a:	fd 4f       	sbci	r31, 0xFD	; 253
     65c:	83 81       	ldd	r24, Z+3	; 0x03
     65e:	90 e0       	ldi	r25, 0x00	; 0
     660:	0e 94 83 06 	call	0xd06	; 0xd06 <putchar>
		message1 = can_receive(0);
		//printf("I_L 0\r\n");
		//printf("%i\t",message1.length);
		printf("\r\n################# NEW MESSAGE ###########\r\n");
		printf("Received message on buffer 1:\t");
		for (uint8_t i = 0; i < message1.length; i++ )
     664:	1f 5f       	subi	r17, 0xFF	; 255
     666:	80 91 ce 02 	lds	r24, 0x02CE	; 0x8002ce <__data_end+0x2>
     66a:	18 17       	cp	r17, r24
     66c:	98 f3       	brcs	.-26     	; 0x654 <__vector_2+0x78>
		{
			printf("%c",message1.data[i]);
		}
		printf("\r\nwith data lengt:\t%d\n\r",message1.length);
     66e:	1f 92       	push	r1
     670:	8f 93       	push	r24
     672:	8a ea       	ldi	r24, 0xAA	; 170
     674:	91 e0       	ldi	r25, 0x01	; 1
     676:	9f 93       	push	r25
     678:	8f 93       	push	r24
     67a:	0e 94 6d 06 	call	0xcda	; 0xcda <printf>
		printf("ID:\t%d\r\n",message1.id);
     67e:	ec ec       	ldi	r30, 0xCC	; 204
     680:	f2 e0       	ldi	r31, 0x02	; 2
     682:	81 81       	ldd	r24, Z+1	; 0x01
     684:	8f 93       	push	r24
     686:	80 81       	ld	r24, Z
     688:	8f 93       	push	r24
     68a:	82 ec       	ldi	r24, 0xC2	; 194
     68c:	91 e0       	ldi	r25, 0x01	; 1
     68e:	9f 93       	push	r25
     690:	8f 93       	push	r24
     692:	0e 94 6d 06 	call	0xcda	; 0xcda <printf>
		printf("\r\n");
     696:	88 e3       	ldi	r24, 0x38	; 56
     698:	92 e0       	ldi	r25, 0x02	; 2
     69a:	0e 94 8a 06 	call	0xd14	; 0xd14 <puts>
		mcp2515_bit_modify(MCP_CANINTF, 0b00000001, 0);
     69e:	40 e0       	ldi	r20, 0x00	; 0
     6a0:	61 e0       	ldi	r22, 0x01	; 1
     6a2:	8c e2       	ldi	r24, 0x2C	; 44
     6a4:	0e 94 95 04 	call	0x92a	; 0x92a <mcp2515_bit_modify>
     6a8:	0f b6       	in	r0, 0x3f	; 63
     6aa:	f8 94       	cli
     6ac:	de bf       	out	0x3e, r29	; 62
     6ae:	0f be       	out	0x3f, r0	; 63
     6b0:	cd bf       	out	0x3d, r28	; 61
     6b2:	52 c0       	rjmp	.+164    	; 0x758 <__vector_2+0x17c>
	}
	else if(interrupt_list[1]){
     6b4:	99 23       	and	r25, r25
     6b6:	09 f4       	brne	.+2      	; 0x6ba <__vector_2+0xde>
     6b8:	4f c0       	rjmp	.+158    	; 0x758 <__vector_2+0x17c>
		message2 = can_receive(1);
     6ba:	61 e0       	ldi	r22, 0x01	; 1
     6bc:	ce 01       	movw	r24, r28
     6be:	01 96       	adiw	r24, 0x01	; 1
     6c0:	0e 94 82 02 	call	0x504	; 0x504 <can_receive>
     6c4:	8b e0       	ldi	r24, 0x0B	; 11
     6c6:	fe 01       	movw	r30, r28
     6c8:	31 96       	adiw	r30, 0x01	; 1
     6ca:	a8 ed       	ldi	r26, 0xD8	; 216
     6cc:	b2 e0       	ldi	r27, 0x02	; 2
     6ce:	01 90       	ld	r0, Z+
     6d0:	0d 92       	st	X+, r0
     6d2:	8a 95       	dec	r24
     6d4:	e1 f7       	brne	.-8      	; 0x6ce <__vector_2+0xf2>
		printf("\r\n################# NEW MESSAGE ###########\r\n");
     6d6:	8e e5       	ldi	r24, 0x5E	; 94
     6d8:	91 e0       	ldi	r25, 0x01	; 1
     6da:	0e 94 8a 06 	call	0xd14	; 0xd14 <puts>
		printf("Received message on buffer 2:\t");
     6de:	8b ec       	ldi	r24, 0xCB	; 203
     6e0:	91 e0       	ldi	r25, 0x01	; 1
     6e2:	9f 93       	push	r25
     6e4:	8f 93       	push	r24
     6e6:	0e 94 6d 06 	call	0xcda	; 0xcda <printf>
		for (uint8_t i = 0; i < message2.length; i++ )
     6ea:	0f 90       	pop	r0
     6ec:	0f 90       	pop	r0
     6ee:	10 e0       	ldi	r17, 0x00	; 0
     6f0:	09 c0       	rjmp	.+18     	; 0x704 <__vector_2+0x128>
		{
			printf("%c",message2.data[i]);
     6f2:	e1 2f       	mov	r30, r17
     6f4:	f0 e0       	ldi	r31, 0x00	; 0
     6f6:	e8 52       	subi	r30, 0x28	; 40
     6f8:	fd 4f       	sbci	r31, 0xFD	; 253
     6fa:	83 81       	ldd	r24, Z+3	; 0x03
     6fc:	90 e0       	ldi	r25, 0x00	; 0
     6fe:	0e 94 83 06 	call	0xd06	; 0xd06 <putchar>
	}
	else if(interrupt_list[1]){
		message2 = can_receive(1);
		printf("\r\n################# NEW MESSAGE ###########\r\n");
		printf("Received message on buffer 2:\t");
		for (uint8_t i = 0; i < message2.length; i++ )
     702:	1f 5f       	subi	r17, 0xFF	; 255
     704:	80 91 da 02 	lds	r24, 0x02DA	; 0x8002da <message2+0x2>
     708:	18 17       	cp	r17, r24
     70a:	98 f3       	brcs	.-26     	; 0x6f2 <__vector_2+0x116>
		{
			printf("%c",message2.data[i]);
		}
		printf("\r\nwith data lengt:\t%d\n\r",message2.length);
     70c:	1f 92       	push	r1
     70e:	8f 93       	push	r24
     710:	8a ea       	ldi	r24, 0xAA	; 170
     712:	91 e0       	ldi	r25, 0x01	; 1
     714:	9f 93       	push	r25
     716:	8f 93       	push	r24
     718:	0e 94 6d 06 	call	0xcda	; 0xcda <printf>
		printf("ID:\t%d\r\n",message2.id);
     71c:	e8 ed       	ldi	r30, 0xD8	; 216
     71e:	f2 e0       	ldi	r31, 0x02	; 2
     720:	81 81       	ldd	r24, Z+1	; 0x01
     722:	8f 93       	push	r24
     724:	80 81       	ld	r24, Z
     726:	8f 93       	push	r24
     728:	82 ec       	ldi	r24, 0xC2	; 194
     72a:	91 e0       	ldi	r25, 0x01	; 1
     72c:	9f 93       	push	r25
     72e:	8f 93       	push	r24
     730:	0e 94 6d 06 	call	0xcda	; 0xcda <printf>
		printf("\r\n");
     734:	88 e3       	ldi	r24, 0x38	; 56
     736:	92 e0       	ldi	r25, 0x02	; 2
     738:	0e 94 8a 06 	call	0xd14	; 0xd14 <puts>
		printf("\r\n");
     73c:	88 e3       	ldi	r24, 0x38	; 56
     73e:	92 e0       	ldi	r25, 0x02	; 2
     740:	0e 94 8a 06 	call	0xd14	; 0xd14 <puts>
		mcp2515_bit_modify(MCP_CANINTF, 0b00000010, 0);
     744:	40 e0       	ldi	r20, 0x00	; 0
     746:	62 e0       	ldi	r22, 0x02	; 2
     748:	8c e2       	ldi	r24, 0x2C	; 44
     74a:	0e 94 95 04 	call	0x92a	; 0x92a <mcp2515_bit_modify>
     74e:	0f b6       	in	r0, 0x3f	; 63
     750:	f8 94       	cli
     752:	de bf       	out	0x3e, r29	; 62
     754:	0f be       	out	0x3f, r0	; 63
     756:	cd bf       	out	0x3d, r28	; 61
	}
}
     758:	2b 96       	adiw	r28, 0x0b	; 11
     75a:	0f b6       	in	r0, 0x3f	; 63
     75c:	f8 94       	cli
     75e:	de bf       	out	0x3e, r29	; 62
     760:	0f be       	out	0x3f, r0	; 63
     762:	cd bf       	out	0x3d, r28	; 61
     764:	df 91       	pop	r29
     766:	cf 91       	pop	r28
     768:	ff 91       	pop	r31
     76a:	ef 91       	pop	r30
     76c:	bf 91       	pop	r27
     76e:	af 91       	pop	r26
     770:	9f 91       	pop	r25
     772:	8f 91       	pop	r24
     774:	7f 91       	pop	r23
     776:	6f 91       	pop	r22
     778:	5f 91       	pop	r21
     77a:	4f 91       	pop	r20
     77c:	3f 91       	pop	r19
     77e:	2f 91       	pop	r18
     780:	1f 91       	pop	r17
     782:	0f 90       	pop	r0
     784:	0f be       	out	0x3f, r0	; 63
     786:	0f 90       	pop	r0
     788:	1f 90       	pop	r1
     78a:	18 95       	reti

0000078c <send_joy_pos>:





void send_joy_pos( void ){
     78c:	cf 92       	push	r12
     78e:	df 92       	push	r13
     790:	ef 92       	push	r14
     792:	ff 92       	push	r15
     794:	0f 93       	push	r16
     796:	1f 93       	push	r17
     798:	cf 93       	push	r28
     79a:	df 93       	push	r29
     79c:	cd b7       	in	r28, 0x3d	; 61
     79e:	de b7       	in	r29, 0x3e	; 62
     7a0:	2b 97       	sbiw	r28, 0x0b	; 11
     7a2:	0f b6       	in	r0, 0x3f	; 63
     7a4:	f8 94       	cli
     7a6:	de bf       	out	0x3e, r29	; 62
     7a8:	0f be       	out	0x3f, r0	; 63
     7aa:	cd bf       	out	0x3d, r28	; 61
	
	uint8_t y_axis = joystick_analog_position_percentage(read_adc(0),0);
     7ac:	80 e0       	ldi	r24, 0x00	; 0
     7ae:	0e 94 61 00 	call	0xc2	; 0xc2 <read_adc>
     7b2:	60 e0       	ldi	r22, 0x00	; 0
     7b4:	0e 94 e7 00 	call	0x1ce	; 0x1ce <joystick_analog_position_percentage>
     7b8:	c8 2e       	mov	r12, r24
	uint8_t x_axis = joystick_analog_position_percentage(read_adc(1),1);
     7ba:	81 e0       	ldi	r24, 0x01	; 1
     7bc:	0e 94 61 00 	call	0xc2	; 0xc2 <read_adc>
     7c0:	61 e0       	ldi	r22, 0x01	; 1
     7c2:	0e 94 e7 00 	call	0x1ce	; 0x1ce <joystick_analog_position_percentage>
     7c6:	d8 2e       	mov	r13, r24
	
	message joy_analog_pos_msg;
	joy_analog_pos_msg.id = 6; //Find good real value
     7c8:	86 e0       	ldi	r24, 0x06	; 6
     7ca:	e8 2e       	mov	r14, r24
     7cc:	89 83       	std	Y+1, r24	; 0x01
     7ce:	1a 82       	std	Y+2, r1	; 0x02
	joy_analog_pos_msg.length = 4; // Find real length
	joy_analog_pos_msg.data[0]= y_axis;
	joy_analog_pos_msg.data[1]= x_axis;

	
	can_send(joy_analog_pos_msg);
     7d0:	f1 2c       	mov	r15, r1
     7d2:	04 e0       	ldi	r16, 0x04	; 4
     7d4:	1c 2d       	mov	r17, r12
     7d6:	2d 2d       	mov	r18, r13
     7d8:	3e 81       	ldd	r19, Y+6	; 0x06
     7da:	4f 81       	ldd	r20, Y+7	; 0x07
     7dc:	58 85       	ldd	r21, Y+8	; 0x08
     7de:	69 85       	ldd	r22, Y+9	; 0x09
     7e0:	7a 85       	ldd	r23, Y+10	; 0x0a
     7e2:	8b 85       	ldd	r24, Y+11	; 0x0b
     7e4:	0e 94 2a 02 	call	0x454	; 0x454 <can_send>
	printf("\r\n####### NEW MESSAGE SENDT #######\r\n");
     7e8:	8a ee       	ldi	r24, 0xEA	; 234
     7ea:	91 e0       	ldi	r25, 0x01	; 1
     7ec:	0e 94 8a 06 	call	0xd14	; 0xd14 <puts>
	printf("Data Y:\t%i\r\n",joy_analog_pos_msg.data[0]);
     7f0:	1f 92       	push	r1
     7f2:	cf 92       	push	r12
     7f4:	8f e0       	ldi	r24, 0x0F	; 15
     7f6:	92 e0       	ldi	r25, 0x02	; 2
     7f8:	9f 93       	push	r25
     7fa:	8f 93       	push	r24
     7fc:	0e 94 6d 06 	call	0xcda	; 0xcda <printf>
	printf("Data X:\t%i\r\n",joy_analog_pos_msg.data[1]);
     800:	1f 92       	push	r1
     802:	df 92       	push	r13
     804:	8c e1       	ldi	r24, 0x1C	; 28
     806:	92 e0       	ldi	r25, 0x02	; 2
     808:	9f 93       	push	r25
     80a:	8f 93       	push	r24
     80c:	0e 94 6d 06 	call	0xcda	; 0xcda <printf>
	printf("Data lengt:\t%d\n\r",joy_analog_pos_msg.length);
     810:	1f 92       	push	r1
     812:	84 e0       	ldi	r24, 0x04	; 4
     814:	8f 93       	push	r24
     816:	89 e2       	ldi	r24, 0x29	; 41
     818:	92 e0       	ldi	r25, 0x02	; 2
     81a:	9f 93       	push	r25
     81c:	8f 93       	push	r24
     81e:	0e 94 6d 06 	call	0xcda	; 0xcda <printf>
	printf("ID:\t%d\r\n",joy_analog_pos_msg.id);
     822:	1f 92       	push	r1
     824:	86 e0       	ldi	r24, 0x06	; 6
     826:	8f 93       	push	r24
     828:	82 ec       	ldi	r24, 0xC2	; 194
     82a:	91 e0       	ldi	r25, 0x01	; 1
     82c:	9f 93       	push	r25
     82e:	8f 93       	push	r24
     830:	0e 94 6d 06 	call	0xcda	; 0xcda <printf>
}
     834:	0f b6       	in	r0, 0x3f	; 63
     836:	f8 94       	cli
     838:	de bf       	out	0x3e, r29	; 62
     83a:	0f be       	out	0x3f, r0	; 63
     83c:	cd bf       	out	0x3d, r28	; 61
     83e:	2b 96       	adiw	r28, 0x0b	; 11
     840:	0f b6       	in	r0, 0x3f	; 63
     842:	f8 94       	cli
     844:	de bf       	out	0x3e, r29	; 62
     846:	0f be       	out	0x3f, r0	; 63
     848:	cd bf       	out	0x3d, r28	; 61
     84a:	df 91       	pop	r29
     84c:	cf 91       	pop	r28
     84e:	1f 91       	pop	r17
     850:	0f 91       	pop	r16
     852:	ff 90       	pop	r15
     854:	ef 90       	pop	r14
     856:	df 90       	pop	r13
     858:	cf 90       	pop	r12
     85a:	08 95       	ret

0000085c <main>:
volatile uint8_t* oled_data = (uint8_t*)0x1200;


int main(void)
{
	xmem_init ();
     85c:	0e 94 a6 05 	call	0xb4c	; 0xb4c <xmem_init>
	button_init();
     860:	0e 94 ba 01 	call	0x374	; 0x374 <button_init>
	adc_timer();
     864:	0e 94 57 00 	call	0xae	; 0xae <adc_timer>
	UART_Init();
     868:	0e 94 9c 05 	call	0xb38	; 0xb38 <UART_Init>
	oled_init();
     86c:	0e 94 33 05 	call	0xa66	; 0xa66 <oled_init>
	oled_clear();
     870:	0e 94 fc 04 	call	0x9f8	; 0x9f8 <oled_clear>
     874:	2f ef       	ldi	r18, 0xFF	; 255
     876:	8f ef       	ldi	r24, 0xFF	; 255
     878:	9e e0       	ldi	r25, 0x0E	; 14
     87a:	21 50       	subi	r18, 0x01	; 1
     87c:	80 40       	sbci	r24, 0x00	; 0
     87e:	90 40       	sbci	r25, 0x00	; 0
     880:	e1 f7       	brne	.-8      	; 0x87a <main+0x1e>
     882:	00 c0       	rjmp	.+0      	; 0x884 <main+0x28>
     884:	00 00       	nop
	_delay_ms(1000);
	uint8_t row = 0;
	uint8_t column = 0;
	oled_pos(row,column);
     886:	60 e0       	ldi	r22, 0x00	; 0
     888:	80 e0       	ldi	r24, 0x00	; 0
     88a:	0e 94 1a 05 	call	0xa34	; 0xa34 <oled_pos>
		
	can_init();
     88e:	0e 94 c4 01 	call	0x388	; 0x388 <can_init>
	
	printf("\r\n################ HELLO ################\r\n");
     892:	8a e3       	ldi	r24, 0x3A	; 58
     894:	92 e0       	ldi	r25, 0x02	; 2
     896:	0e 94 8a 06 	call	0xd14	; 0xd14 <puts>
     89a:	8f ef       	ldi	r24, 0xFF	; 255
     89c:	9f e2       	ldi	r25, 0x2F	; 47
     89e:	01 97       	sbiw	r24, 0x01	; 1
     8a0:	f1 f7       	brne	.-4      	; 0x89e <main+0x42>
     8a2:	00 c0       	rjmp	.+0      	; 0x8a4 <main+0x48>
     8a4:	00 00       	nop
	

	
	while(1){
		_delay_ms(10);
		send_joy_pos();
     8a6:	0e 94 c6 03 	call	0x78c	; 0x78c <send_joy_pos>
     8aa:	f7 cf       	rjmp	.-18     	; 0x89a <main+0x3e>

000008ac <mcp2515_read>:
	ss_select();
	spi_transmit(MCP_READ_STATUS);
	data_out = spi_recieve(); // POSSIBLY PROBLEMS 
	ss_deselect();
	return data_out;
}
     8ac:	cf 93       	push	r28
     8ae:	c8 2f       	mov	r28, r24
     8b0:	0e 94 76 05 	call	0xaec	; 0xaec <ss_select>
     8b4:	83 e0       	ldi	r24, 0x03	; 3
     8b6:	0e 94 83 05 	call	0xb06	; 0xb06 <spi_transmit>
     8ba:	8c 2f       	mov	r24, r28
     8bc:	0e 94 83 05 	call	0xb06	; 0xb06 <spi_transmit>
     8c0:	0e 94 87 05 	call	0xb0e	; 0xb0e <spi_recieve>
     8c4:	c8 2f       	mov	r28, r24
     8c6:	0e 94 7a 05 	call	0xaf4	; 0xaf4 <ss_deselect>
     8ca:	8c 2f       	mov	r24, r28
     8cc:	cf 91       	pop	r28
     8ce:	08 95       	ret

000008d0 <mcp2515_write>:
     8d0:	cf 93       	push	r28
     8d2:	df 93       	push	r29
     8d4:	d8 2f       	mov	r29, r24
     8d6:	c6 2f       	mov	r28, r22
     8d8:	0e 94 76 05 	call	0xaec	; 0xaec <ss_select>
     8dc:	82 e0       	ldi	r24, 0x02	; 2
     8de:	0e 94 83 05 	call	0xb06	; 0xb06 <spi_transmit>
     8e2:	8d 2f       	mov	r24, r29
     8e4:	0e 94 83 05 	call	0xb06	; 0xb06 <spi_transmit>
     8e8:	8c 2f       	mov	r24, r28
     8ea:	0e 94 83 05 	call	0xb06	; 0xb06 <spi_transmit>
     8ee:	0e 94 7a 05 	call	0xaf4	; 0xaf4 <ss_deselect>
     8f2:	df 91       	pop	r29
     8f4:	cf 91       	pop	r28
     8f6:	08 95       	ret

000008f8 <mcp2515_rts>:
     8f8:	cf 93       	push	r28
     8fa:	c8 2f       	mov	r28, r24
     8fc:	0e 94 76 05 	call	0xaec	; 0xaec <ss_select>
     900:	c1 11       	cpse	r28, r1
     902:	04 c0       	rjmp	.+8      	; 0x90c <mcp2515_rts+0x14>
     904:	81 e8       	ldi	r24, 0x81	; 129
     906:	0e 94 83 05 	call	0xb06	; 0xb06 <spi_transmit>
     90a:	0b c0       	rjmp	.+22     	; 0x922 <mcp2515_rts+0x2a>
     90c:	c1 30       	cpi	r28, 0x01	; 1
     90e:	21 f4       	brne	.+8      	; 0x918 <mcp2515_rts+0x20>
     910:	82 e8       	ldi	r24, 0x82	; 130
     912:	0e 94 83 05 	call	0xb06	; 0xb06 <spi_transmit>
     916:	05 c0       	rjmp	.+10     	; 0x922 <mcp2515_rts+0x2a>
     918:	c2 30       	cpi	r28, 0x02	; 2
     91a:	19 f4       	brne	.+6      	; 0x922 <mcp2515_rts+0x2a>
     91c:	84 e8       	ldi	r24, 0x84	; 132
     91e:	0e 94 83 05 	call	0xb06	; 0xb06 <spi_transmit>
     922:	0e 94 7a 05 	call	0xaf4	; 0xaf4 <ss_deselect>
     926:	cf 91       	pop	r28
     928:	08 95       	ret

0000092a <mcp2515_bit_modify>:

void mcp2515_bit_modify ( uint8_t address, uint8_t mask, uint8_t data ){
     92a:	1f 93       	push	r17
     92c:	cf 93       	push	r28
     92e:	df 93       	push	r29
     930:	18 2f       	mov	r17, r24
     932:	d6 2f       	mov	r29, r22
     934:	c4 2f       	mov	r28, r20
	ss_select();
     936:	0e 94 76 05 	call	0xaec	; 0xaec <ss_select>
	spi_transmit(MCP_BITMOD);
     93a:	85 e0       	ldi	r24, 0x05	; 5
     93c:	0e 94 83 05 	call	0xb06	; 0xb06 <spi_transmit>
	spi_transmit(address);
     940:	81 2f       	mov	r24, r17
     942:	0e 94 83 05 	call	0xb06	; 0xb06 <spi_transmit>
	spi_transmit(mask);
     946:	8d 2f       	mov	r24, r29
     948:	0e 94 83 05 	call	0xb06	; 0xb06 <spi_transmit>
	spi_transmit(data);
     94c:	8c 2f       	mov	r24, r28
     94e:	0e 94 83 05 	call	0xb06	; 0xb06 <spi_transmit>
	ss_deselect();
     952:	0e 94 7a 05 	call	0xaf4	; 0xaf4 <ss_deselect>
}
     956:	df 91       	pop	r29
     958:	cf 91       	pop	r28
     95a:	1f 91       	pop	r17
     95c:	08 95       	ret

0000095e <mcp2515_reset>:

void mcp2515_reset ( void ) {
	ss_select();
     95e:	0e 94 76 05 	call	0xaec	; 0xaec <ss_select>
	spi_transmit(MCP_RESET);
     962:	80 ec       	ldi	r24, 0xC0	; 192
     964:	0e 94 83 05 	call	0xb06	; 0xb06 <spi_transmit>
	ss_deselect();
     968:	0e 94 7a 05 	call	0xaf4	; 0xaf4 <ss_deselect>
     96c:	08 95       	ret

0000096e <mcp_read_pointer>:
}

void mcp_read_pointer ( uint8_t address, uint8_t* value ) {
     96e:	1f 93       	push	r17
     970:	cf 93       	push	r28
     972:	df 93       	push	r29
     974:	18 2f       	mov	r17, r24
     976:	eb 01       	movw	r28, r22
	uint8_t data_out;
	ss_select();
     978:	0e 94 76 05 	call	0xaec	; 0xaec <ss_select>
	spi_transmit(MCP_READ);
     97c:	83 e0       	ldi	r24, 0x03	; 3
     97e:	0e 94 83 05 	call	0xb06	; 0xb06 <spi_transmit>
	spi_transmit(address);
     982:	81 2f       	mov	r24, r17
     984:	0e 94 83 05 	call	0xb06	; 0xb06 <spi_transmit>
	data_out = spi_recieve();
     988:	0e 94 87 05 	call	0xb0e	; 0xb0e <spi_recieve>
     98c:	18 2f       	mov	r17, r24
	ss_deselect();
     98e:	0e 94 7a 05 	call	0xaf4	; 0xaf4 <ss_deselect>
	
	*value = data_out;
     992:	18 83       	st	Y, r17
}
     994:	df 91       	pop	r29
     996:	cf 91       	pop	r28
     998:	1f 91       	pop	r17
     99a:	08 95       	ret

0000099c <mcp2515_init>:


uint8_t mcp2515_init ( void ) {
     99c:	cf 93       	push	r28
     99e:	df 93       	push	r29
     9a0:	1f 92       	push	r1
     9a2:	cd b7       	in	r28, 0x3d	; 61
     9a4:	de b7       	in	r29, 0x3e	; 62
	uint8_t value = 1;
     9a6:	81 e0       	ldi	r24, 0x01	; 1
     9a8:	89 83       	std	Y+1, r24	; 0x01
	spi_master_init () ; // Initialize SPI
     9aa:	0e 94 7e 05 	call	0xafc	; 0xafc <spi_master_init>
	mcp2515_reset () ; // Send reset - command
     9ae:	0e 94 af 04 	call	0x95e	; 0x95e <mcp2515_reset>
	// Self - test
	mcp_read_pointer ( MCP_CANSTAT, &value );
     9b2:	be 01       	movw	r22, r28
     9b4:	6f 5f       	subi	r22, 0xFF	; 255
     9b6:	7f 4f       	sbci	r23, 0xFF	; 255
     9b8:	8e e0       	ldi	r24, 0x0E	; 14
     9ba:	0e 94 b7 04 	call	0x96e	; 0x96e <mcp_read_pointer>

	if (( value & MODE_MASK ) != MODE_CONFIG ) {
     9be:	89 81       	ldd	r24, Y+1	; 0x01
     9c0:	80 7e       	andi	r24, 0xE0	; 224
     9c2:	80 38       	cpi	r24, 0x80	; 128
     9c4:	31 f0       	breq	.+12     	; 0x9d2 <mcp2515_init+0x36>
		printf (" MCP2515 is NOT in configuration mode after reset !\r\n");
     9c6:	85 e6       	ldi	r24, 0x65	; 101
     9c8:	92 e0       	ldi	r25, 0x02	; 2
     9ca:	0e 94 8a 06 	call	0xd14	; 0xd14 <puts>
		return 1;
     9ce:	81 e0       	ldi	r24, 0x01	; 1
     9d0:	09 c0       	rjmp	.+18     	; 0x9e4 <mcp2515_init+0x48>
	}
	else if ( ( value & MODE_MASK ) == MODE_CONFIG )
     9d2:	80 38       	cpi	r24, 0x80	; 128
     9d4:	31 f4       	brne	.+12     	; 0x9e2 <mcp2515_init+0x46>
	{
				printf (" MCP2515 is IN configuration mode after reset !\r\n");
     9d6:	8a e9       	ldi	r24, 0x9A	; 154
     9d8:	92 e0       	ldi	r25, 0x02	; 2
     9da:	0e 94 8a 06 	call	0xd14	; 0xd14 <puts>
	}
	// More initialization
	return 0;
     9de:	80 e0       	ldi	r24, 0x00	; 0
     9e0:	01 c0       	rjmp	.+2      	; 0x9e4 <mcp2515_init+0x48>
     9e2:	80 e0       	ldi	r24, 0x00	; 0
}
     9e4:	0f 90       	pop	r0
     9e6:	df 91       	pop	r29
     9e8:	cf 91       	pop	r28
     9ea:	08 95       	ret

000009ec <oled_write_command>:
	oled_clear();
	oled_pos(row,column);
}

void oled_fill( void ){
	oled_write_command(0xA5);
     9ec:	e0 91 08 01 	lds	r30, 0x0108	; 0x800108 <oled_command_address>
     9f0:	f0 91 09 01 	lds	r31, 0x0109	; 0x800109 <oled_command_address+0x1>
     9f4:	80 83       	st	Z, r24
     9f6:	08 95       	ret

000009f8 <oled_clear>:
     9f8:	cf 93       	push	r28
     9fa:	df 93       	push	r29
     9fc:	c0 e0       	ldi	r28, 0x00	; 0
     9fe:	d0 e0       	ldi	r29, 0x00	; 0
     a00:	13 c0       	rjmp	.+38     	; 0xa28 <oled_clear+0x30>
     a02:	8c 2f       	mov	r24, r28
     a04:	80 55       	subi	r24, 0x50	; 80
     a06:	0e 94 f6 04 	call	0x9ec	; 0x9ec <oled_write_command>
     a0a:	80 e0       	ldi	r24, 0x00	; 0
     a0c:	90 e0       	ldi	r25, 0x00	; 0
     a0e:	08 c0       	rjmp	.+16     	; 0xa20 <oled_clear+0x28>
     a10:	e0 91 06 01 	lds	r30, 0x0106	; 0x800106 <oled_data_address>
     a14:	f0 91 07 01 	lds	r31, 0x0107	; 0x800107 <oled_data_address+0x1>
     a18:	ec 0f       	add	r30, r28
     a1a:	fd 1f       	adc	r31, r29
     a1c:	10 82       	st	Z, r1
     a1e:	01 96       	adiw	r24, 0x01	; 1
     a20:	80 38       	cpi	r24, 0x80	; 128
     a22:	91 05       	cpc	r25, r1
     a24:	ac f3       	brlt	.-22     	; 0xa10 <oled_clear+0x18>
     a26:	21 96       	adiw	r28, 0x01	; 1
     a28:	c8 30       	cpi	r28, 0x08	; 8
     a2a:	d1 05       	cpc	r29, r1
     a2c:	54 f3       	brlt	.-44     	; 0xa02 <oled_clear+0xa>
     a2e:	df 91       	pop	r29
     a30:	cf 91       	pop	r28
     a32:	08 95       	ret

00000a34 <oled_pos>:
     a34:	cf 93       	push	r28
     a36:	df 93       	push	r29
     a38:	d8 2f       	mov	r29, r24
     a3a:	c6 2f       	mov	r28, r22
     a3c:	82 e2       	ldi	r24, 0x22	; 34
     a3e:	0e 94 f6 04 	call	0x9ec	; 0x9ec <oled_write_command>
     a42:	8d 2f       	mov	r24, r29
     a44:	0e 94 f6 04 	call	0x9ec	; 0x9ec <oled_write_command>
     a48:	87 e0       	ldi	r24, 0x07	; 7
     a4a:	0e 94 f6 04 	call	0x9ec	; 0x9ec <oled_write_command>
     a4e:	81 e2       	ldi	r24, 0x21	; 33
     a50:	0e 94 f6 04 	call	0x9ec	; 0x9ec <oled_write_command>
     a54:	8c 2f       	mov	r24, r28
     a56:	0e 94 f6 04 	call	0x9ec	; 0x9ec <oled_write_command>
     a5a:	8f e7       	ldi	r24, 0x7F	; 127
     a5c:	0e 94 f6 04 	call	0x9ec	; 0x9ec <oled_write_command>
     a60:	df 91       	pop	r29
     a62:	cf 91       	pop	r28
     a64:	08 95       	ret

00000a66 <oled_init>:
}

void oled_init( void ){ // Yoinked from OLED data sheet
	oled_write_command(0xae); // display off
     a66:	8e ea       	ldi	r24, 0xAE	; 174
     a68:	0e 94 f6 04 	call	0x9ec	; 0x9ec <oled_write_command>
	oled_write_command(0xa1); //segment remap
     a6c:	81 ea       	ldi	r24, 0xA1	; 161
     a6e:	0e 94 f6 04 	call	0x9ec	; 0x9ec <oled_write_command>
	oled_write_command(0xda); //common pads hardware: alternative
     a72:	8a ed       	ldi	r24, 0xDA	; 218
     a74:	0e 94 f6 04 	call	0x9ec	; 0x9ec <oled_write_command>
	oled_write_command(0x12);
     a78:	82 e1       	ldi	r24, 0x12	; 18
     a7a:	0e 94 f6 04 	call	0x9ec	; 0x9ec <oled_write_command>
	oled_write_command(0xc8); //common output scan direction:com63~com0
     a7e:	88 ec       	ldi	r24, 0xC8	; 200
     a80:	0e 94 f6 04 	call	0x9ec	; 0x9ec <oled_write_command>
	oled_write_command(0xa8); //multiplex ration mode:63
     a84:	88 ea       	ldi	r24, 0xA8	; 168
     a86:	0e 94 f6 04 	call	0x9ec	; 0x9ec <oled_write_command>
	oled_write_command(0x3f);
     a8a:	8f e3       	ldi	r24, 0x3F	; 63
     a8c:	0e 94 f6 04 	call	0x9ec	; 0x9ec <oled_write_command>
	oled_write_command(0xd5); //display divide ratio/osc. freq. mode
     a90:	85 ed       	ldi	r24, 0xD5	; 213
     a92:	0e 94 f6 04 	call	0x9ec	; 0x9ec <oled_write_command>
	oled_write_command(0x80);
     a96:	80 e8       	ldi	r24, 0x80	; 128
     a98:	0e 94 f6 04 	call	0x9ec	; 0x9ec <oled_write_command>
	oled_write_command(0x81); //contrast control
     a9c:	81 e8       	ldi	r24, 0x81	; 129
     a9e:	0e 94 f6 04 	call	0x9ec	; 0x9ec <oled_write_command>
	oled_write_command(0x50);
     aa2:	80 e5       	ldi	r24, 0x50	; 80
     aa4:	0e 94 f6 04 	call	0x9ec	; 0x9ec <oled_write_command>
	oled_write_command(0xd9); //set pre-charge period
     aa8:	89 ed       	ldi	r24, 0xD9	; 217
     aaa:	0e 94 f6 04 	call	0x9ec	; 0x9ec <oled_write_command>
	oled_write_command(0x21);
     aae:	81 e2       	ldi	r24, 0x21	; 33
     ab0:	0e 94 f6 04 	call	0x9ec	; 0x9ec <oled_write_command>
	oled_write_command(0x20); //Set Memory Addressing Mode
     ab4:	80 e2       	ldi	r24, 0x20	; 32
     ab6:	0e 94 f6 04 	call	0x9ec	; 0x9ec <oled_write_command>
	oled_write_command(0x02);
     aba:	82 e0       	ldi	r24, 0x02	; 2
     abc:	0e 94 f6 04 	call	0x9ec	; 0x9ec <oled_write_command>
	oled_write_command(0xdb); //VCOM deselect level mode
     ac0:	8b ed       	ldi	r24, 0xDB	; 219
     ac2:	0e 94 f6 04 	call	0x9ec	; 0x9ec <oled_write_command>
	oled_write_command(0x30);
     ac6:	80 e3       	ldi	r24, 0x30	; 48
     ac8:	0e 94 f6 04 	call	0x9ec	; 0x9ec <oled_write_command>
	oled_write_command(0xad); //master configuration
     acc:	8d ea       	ldi	r24, 0xAD	; 173
     ace:	0e 94 f6 04 	call	0x9ec	; 0x9ec <oled_write_command>
	oled_write_command(0x00);
     ad2:	80 e0       	ldi	r24, 0x00	; 0
     ad4:	0e 94 f6 04 	call	0x9ec	; 0x9ec <oled_write_command>
	oled_write_command(0xa4); //out follows RAM content
     ad8:	84 ea       	ldi	r24, 0xA4	; 164
     ada:	0e 94 f6 04 	call	0x9ec	; 0x9ec <oled_write_command>
	oled_write_command(0xa6); //set normal display
     ade:	86 ea       	ldi	r24, 0xA6	; 166
     ae0:	0e 94 f6 04 	call	0x9ec	; 0x9ec <oled_write_command>
	oled_write_command(0xaf); // display on
     ae4:	8f ea       	ldi	r24, 0xAF	; 175
     ae6:	0e 94 f6 04 	call	0x9ec	; 0x9ec <oled_write_command>
     aea:	08 95       	ret

00000aec <ss_select>:
#define F_CPU 4915200 // Clock Speed

#include <util/delay.h>

void ss_select ( void ){
	PORTB &= (~(1 << PB4));
     aec:	88 b3       	in	r24, 0x18	; 24
     aee:	8f 7e       	andi	r24, 0xEF	; 239
     af0:	88 bb       	out	0x18, r24	; 24
     af2:	08 95       	ret

00000af4 <ss_deselect>:
}

void ss_deselect ( void ){
	PORTB |= (1 << PB4);
     af4:	88 b3       	in	r24, 0x18	; 24
     af6:	80 61       	ori	r24, 0x10	; 16
     af8:	88 bb       	out	0x18, r24	; 24
     afa:	08 95       	ret

00000afc <spi_master_init>:
}

void spi_master_init(void)
{
	/* Set MOSI and SCK output, all others input */
	DDRB = (1<<PB4)|(1<<PB5)|(1<<PB7);
     afc:	80 eb       	ldi	r24, 0xB0	; 176
     afe:	87 bb       	out	0x17, r24	; 23
	/* Enable SPI, Master, set clock rate fck/16 */
	SPCR = (1<<SPE)|(1<<MSTR)|(1<<SPR0); // Tror vi er i SPI mode 0, fordi CPOL og CPHA = 0
     b00:	81 e5       	ldi	r24, 0x51	; 81
     b02:	8d b9       	out	0x0d, r24	; 13
     b04:	08 95       	ret

00000b06 <spi_transmit>:

}
void spi_transmit (char cData)
{
	/* Start transmission */
	SPDR = cData;
     b06:	8f b9       	out	0x0f, r24	; 15
	/* Wait for transmission complete */
	while(!(SPSR & (1<<SPIF)))
     b08:	77 9b       	sbis	0x0e, 7	; 14
     b0a:	fe cf       	rjmp	.-4      	; 0xb08 <spi_transmit+0x2>
	;
}
     b0c:	08 95       	ret

00000b0e <spi_recieve>:

char spi_recieve( void )
{
	SPDR = 0xFF;
     b0e:	8f ef       	ldi	r24, 0xFF	; 255
     b10:	8f b9       	out	0x0f, r24	; 15
	/* Wait for reception complete */
	while(!(SPSR & (1<<SPIF)))
     b12:	77 9b       	sbis	0x0e, 7	; 14
     b14:	fe cf       	rjmp	.-4      	; 0xb12 <spi_recieve+0x4>
	;
	return SPDR;
     b16:	8f b1       	in	r24, 0x0f	; 15
}
     b18:	08 95       	ret

00000b1a <UART_Transmit>:
}

void UART_Transmit( unsigned char data )
{
	/* Wait for empty transmit buffer */
	while ( !( UCSR0A & (1<<UDRE0)) )
     b1a:	5d 9b       	sbis	0x0b, 5	; 11
     b1c:	fe cf       	rjmp	.-4      	; 0xb1a <UART_Transmit>
	;
	/* Put data into buffer, sends the data */
	UDR0 = data;
     b1e:	8c b9       	out	0x0c, r24	; 12
     b20:	08 95       	ret

00000b22 <UART_Receive>:


unsigned char UART_Receive()
{
	/* Wait for data to be received */
	while ( !(UCSR0A & (1<<RXC0)) )
     b22:	5f 9b       	sbis	0x0b, 7	; 11
     b24:	fe cf       	rjmp	.-4      	; 0xb22 <UART_Receive>
	;
	/* Get and return received data from buffer */
	return UDR0;
     b26:	8c b1       	in	r24, 0x0c	; 12
}
     b28:	08 95       	ret

00000b2a <UART_printf_link>:

void UART_printf_link()
{
	fdevopen((int (*)(char, FILE*))UART_Transmit, (int (*)(FILE*))UART_Receive);
     b2a:	61 e9       	ldi	r22, 0x91	; 145
     b2c:	75 e0       	ldi	r23, 0x05	; 5
     b2e:	8d e8       	ldi	r24, 0x8D	; 141
     b30:	95 e0       	ldi	r25, 0x05	; 5
     b32:	0e 94 22 06 	call	0xc44	; 0xc44 <fdevopen>
     b36:	08 95       	ret

00000b38 <UART_Init>:

void UART_Init( void )
{
	/* Set baud rate */
	int ubrr = 31;
	UBRR0H = (unsigned char)(ubrr>>8);
     b38:	10 bc       	out	0x20, r1	; 32
	UBRR0L = (unsigned char)ubrr;
     b3a:	8f e1       	ldi	r24, 0x1F	; 31
     b3c:	89 b9       	out	0x09, r24	; 9
	/* Enable receiver and transmitter */
	UCSR0B = (1<<RXEN0)|(1<<TXEN0);
     b3e:	88 e1       	ldi	r24, 0x18	; 24
     b40:	8a b9       	out	0x0a, r24	; 10
	/* Set frame format: 8data, 2stop bit */
	UCSR0C = (1<<URSEL0)|(1<<USBS0)|(3<<UCSZ00);
     b42:	8e e8       	ldi	r24, 0x8E	; 142
     b44:	80 bd       	out	0x20, r24	; 32
	//return 0;
	/* Link printtf to */
	UART_printf_link();
     b46:	0e 94 95 05 	call	0xb2a	; 0xb2a <UART_printf_link>
     b4a:	08 95       	ret

00000b4c <xmem_init>:
#include "xmem.h"
#include <avr/io.h>


void xmem_init (){
	MCUCR |= (1 << SRE ); // enable XMEM
     b4c:	85 b7       	in	r24, 0x35	; 53
     b4e:	80 68       	ori	r24, 0x80	; 128
     b50:	85 bf       	out	0x35, r24	; 53
	SFIOR |= (1 << XMM2 ); // mask unused bits
     b52:	80 b7       	in	r24, 0x30	; 48
     b54:	80 62       	ori	r24, 0x20	; 32
     b56:	80 bf       	out	0x30, r24	; 48
     b58:	08 95       	ret

00000b5a <xmem_write>:
}

void xmem_write ( uint16_t base_address, int addr, uint8_t data){
	volatile char * ext_mem = ( char *) base_address ;
	ext_mem [ addr ]= data ;
     b5a:	86 0f       	add	r24, r22
     b5c:	97 1f       	adc	r25, r23
     b5e:	fc 01       	movw	r30, r24
     b60:	40 83       	st	Z, r20
     b62:	08 95       	ret

00000b64 <xmem_read>:
}

uint8_t xmem_read ( uint16_t base_address, uint16_t addr ){
	volatile char * ext_mem = ( char *) base_address ; //ADC address
	uint8_t ret_val = ext_mem [ addr ];
     b64:	86 0f       	add	r24, r22
     b66:	97 1f       	adc	r25, r23
     b68:	fc 01       	movw	r30, r24
     b6a:	80 81       	ld	r24, Z
	return ret_val ;
     b6c:	08 95       	ret

00000b6e <__mulsi3>:
     b6e:	db 01       	movw	r26, r22
     b70:	8f 93       	push	r24
     b72:	9f 93       	push	r25
     b74:	0e 94 e6 05 	call	0xbcc	; 0xbcc <__muluhisi3>
     b78:	bf 91       	pop	r27
     b7a:	af 91       	pop	r26
     b7c:	a2 9f       	mul	r26, r18
     b7e:	80 0d       	add	r24, r0
     b80:	91 1d       	adc	r25, r1
     b82:	a3 9f       	mul	r26, r19
     b84:	90 0d       	add	r25, r0
     b86:	b2 9f       	mul	r27, r18
     b88:	90 0d       	add	r25, r0
     b8a:	11 24       	eor	r1, r1
     b8c:	08 95       	ret

00000b8e <__divmodsi4>:
     b8e:	05 2e       	mov	r0, r21
     b90:	97 fb       	bst	r25, 7
     b92:	1e f4       	brtc	.+6      	; 0xb9a <__divmodsi4+0xc>
     b94:	00 94       	com	r0
     b96:	0e 94 de 05 	call	0xbbc	; 0xbbc <__negsi2>
     b9a:	57 fd       	sbrc	r21, 7
     b9c:	07 d0       	rcall	.+14     	; 0xbac <__divmodsi4_neg2>
     b9e:	0e 94 f1 05 	call	0xbe2	; 0xbe2 <__udivmodsi4>
     ba2:	07 fc       	sbrc	r0, 7
     ba4:	03 d0       	rcall	.+6      	; 0xbac <__divmodsi4_neg2>
     ba6:	4e f4       	brtc	.+18     	; 0xbba <__divmodsi4_exit>
     ba8:	0c 94 de 05 	jmp	0xbbc	; 0xbbc <__negsi2>

00000bac <__divmodsi4_neg2>:
     bac:	50 95       	com	r21
     bae:	40 95       	com	r20
     bb0:	30 95       	com	r19
     bb2:	21 95       	neg	r18
     bb4:	3f 4f       	sbci	r19, 0xFF	; 255
     bb6:	4f 4f       	sbci	r20, 0xFF	; 255
     bb8:	5f 4f       	sbci	r21, 0xFF	; 255

00000bba <__divmodsi4_exit>:
     bba:	08 95       	ret

00000bbc <__negsi2>:
     bbc:	90 95       	com	r25
     bbe:	80 95       	com	r24
     bc0:	70 95       	com	r23
     bc2:	61 95       	neg	r22
     bc4:	7f 4f       	sbci	r23, 0xFF	; 255
     bc6:	8f 4f       	sbci	r24, 0xFF	; 255
     bc8:	9f 4f       	sbci	r25, 0xFF	; 255
     bca:	08 95       	ret

00000bcc <__muluhisi3>:
     bcc:	0e 94 13 06 	call	0xc26	; 0xc26 <__umulhisi3>
     bd0:	a5 9f       	mul	r26, r21
     bd2:	90 0d       	add	r25, r0
     bd4:	b4 9f       	mul	r27, r20
     bd6:	90 0d       	add	r25, r0
     bd8:	a4 9f       	mul	r26, r20
     bda:	80 0d       	add	r24, r0
     bdc:	91 1d       	adc	r25, r1
     bde:	11 24       	eor	r1, r1
     be0:	08 95       	ret

00000be2 <__udivmodsi4>:
     be2:	a1 e2       	ldi	r26, 0x21	; 33
     be4:	1a 2e       	mov	r1, r26
     be6:	aa 1b       	sub	r26, r26
     be8:	bb 1b       	sub	r27, r27
     bea:	fd 01       	movw	r30, r26
     bec:	0d c0       	rjmp	.+26     	; 0xc08 <__udivmodsi4_ep>

00000bee <__udivmodsi4_loop>:
     bee:	aa 1f       	adc	r26, r26
     bf0:	bb 1f       	adc	r27, r27
     bf2:	ee 1f       	adc	r30, r30
     bf4:	ff 1f       	adc	r31, r31
     bf6:	a2 17       	cp	r26, r18
     bf8:	b3 07       	cpc	r27, r19
     bfa:	e4 07       	cpc	r30, r20
     bfc:	f5 07       	cpc	r31, r21
     bfe:	20 f0       	brcs	.+8      	; 0xc08 <__udivmodsi4_ep>
     c00:	a2 1b       	sub	r26, r18
     c02:	b3 0b       	sbc	r27, r19
     c04:	e4 0b       	sbc	r30, r20
     c06:	f5 0b       	sbc	r31, r21

00000c08 <__udivmodsi4_ep>:
     c08:	66 1f       	adc	r22, r22
     c0a:	77 1f       	adc	r23, r23
     c0c:	88 1f       	adc	r24, r24
     c0e:	99 1f       	adc	r25, r25
     c10:	1a 94       	dec	r1
     c12:	69 f7       	brne	.-38     	; 0xbee <__udivmodsi4_loop>
     c14:	60 95       	com	r22
     c16:	70 95       	com	r23
     c18:	80 95       	com	r24
     c1a:	90 95       	com	r25
     c1c:	9b 01       	movw	r18, r22
     c1e:	ac 01       	movw	r20, r24
     c20:	bd 01       	movw	r22, r26
     c22:	cf 01       	movw	r24, r30
     c24:	08 95       	ret

00000c26 <__umulhisi3>:
     c26:	a2 9f       	mul	r26, r18
     c28:	b0 01       	movw	r22, r0
     c2a:	b3 9f       	mul	r27, r19
     c2c:	c0 01       	movw	r24, r0
     c2e:	a3 9f       	mul	r26, r19
     c30:	70 0d       	add	r23, r0
     c32:	81 1d       	adc	r24, r1
     c34:	11 24       	eor	r1, r1
     c36:	91 1d       	adc	r25, r1
     c38:	b2 9f       	mul	r27, r18
     c3a:	70 0d       	add	r23, r0
     c3c:	81 1d       	adc	r24, r1
     c3e:	11 24       	eor	r1, r1
     c40:	91 1d       	adc	r25, r1
     c42:	08 95       	ret

00000c44 <fdevopen>:
     c44:	0f 93       	push	r16
     c46:	1f 93       	push	r17
     c48:	cf 93       	push	r28
     c4a:	df 93       	push	r29
     c4c:	00 97       	sbiw	r24, 0x00	; 0
     c4e:	31 f4       	brne	.+12     	; 0xc5c <fdevopen+0x18>
     c50:	61 15       	cp	r22, r1
     c52:	71 05       	cpc	r23, r1
     c54:	19 f4       	brne	.+6      	; 0xc5c <fdevopen+0x18>
     c56:	80 e0       	ldi	r24, 0x00	; 0
     c58:	90 e0       	ldi	r25, 0x00	; 0
     c5a:	3a c0       	rjmp	.+116    	; 0xcd0 <fdevopen+0x8c>
     c5c:	8b 01       	movw	r16, r22
     c5e:	ec 01       	movw	r28, r24
     c60:	6e e0       	ldi	r22, 0x0E	; 14
     c62:	70 e0       	ldi	r23, 0x00	; 0
     c64:	81 e0       	ldi	r24, 0x01	; 1
     c66:	90 e0       	ldi	r25, 0x00	; 0
     c68:	0e 94 9b 08 	call	0x1136	; 0x1136 <calloc>
     c6c:	fc 01       	movw	r30, r24
     c6e:	89 2b       	or	r24, r25
     c70:	91 f3       	breq	.-28     	; 0xc56 <fdevopen+0x12>
     c72:	80 e8       	ldi	r24, 0x80	; 128
     c74:	83 83       	std	Z+3, r24	; 0x03
     c76:	01 15       	cp	r16, r1
     c78:	11 05       	cpc	r17, r1
     c7a:	71 f0       	breq	.+28     	; 0xc98 <fdevopen+0x54>
     c7c:	13 87       	std	Z+11, r17	; 0x0b
     c7e:	02 87       	std	Z+10, r16	; 0x0a
     c80:	81 e8       	ldi	r24, 0x81	; 129
     c82:	83 83       	std	Z+3, r24	; 0x03
     c84:	80 91 e3 02 	lds	r24, 0x02E3	; 0x8002e3 <__iob>
     c88:	90 91 e4 02 	lds	r25, 0x02E4	; 0x8002e4 <__iob+0x1>
     c8c:	89 2b       	or	r24, r25
     c8e:	21 f4       	brne	.+8      	; 0xc98 <fdevopen+0x54>
     c90:	f0 93 e4 02 	sts	0x02E4, r31	; 0x8002e4 <__iob+0x1>
     c94:	e0 93 e3 02 	sts	0x02E3, r30	; 0x8002e3 <__iob>
     c98:	20 97       	sbiw	r28, 0x00	; 0
     c9a:	c9 f0       	breq	.+50     	; 0xcce <fdevopen+0x8a>
     c9c:	d1 87       	std	Z+9, r29	; 0x09
     c9e:	c0 87       	std	Z+8, r28	; 0x08
     ca0:	83 81       	ldd	r24, Z+3	; 0x03
     ca2:	82 60       	ori	r24, 0x02	; 2
     ca4:	83 83       	std	Z+3, r24	; 0x03
     ca6:	80 91 e5 02 	lds	r24, 0x02E5	; 0x8002e5 <__iob+0x2>
     caa:	90 91 e6 02 	lds	r25, 0x02E6	; 0x8002e6 <__iob+0x3>
     cae:	89 2b       	or	r24, r25
     cb0:	71 f4       	brne	.+28     	; 0xcce <fdevopen+0x8a>
     cb2:	f0 93 e6 02 	sts	0x02E6, r31	; 0x8002e6 <__iob+0x3>
     cb6:	e0 93 e5 02 	sts	0x02E5, r30	; 0x8002e5 <__iob+0x2>
     cba:	80 91 e7 02 	lds	r24, 0x02E7	; 0x8002e7 <__iob+0x4>
     cbe:	90 91 e8 02 	lds	r25, 0x02E8	; 0x8002e8 <__iob+0x5>
     cc2:	89 2b       	or	r24, r25
     cc4:	21 f4       	brne	.+8      	; 0xcce <fdevopen+0x8a>
     cc6:	f0 93 e8 02 	sts	0x02E8, r31	; 0x8002e8 <__iob+0x5>
     cca:	e0 93 e7 02 	sts	0x02E7, r30	; 0x8002e7 <__iob+0x4>
     cce:	cf 01       	movw	r24, r30
     cd0:	df 91       	pop	r29
     cd2:	cf 91       	pop	r28
     cd4:	1f 91       	pop	r17
     cd6:	0f 91       	pop	r16
     cd8:	08 95       	ret

00000cda <printf>:
     cda:	a0 e0       	ldi	r26, 0x00	; 0
     cdc:	b0 e0       	ldi	r27, 0x00	; 0
     cde:	e3 e7       	ldi	r30, 0x73	; 115
     ce0:	f6 e0       	ldi	r31, 0x06	; 6
     ce2:	0c 94 9f 0a 	jmp	0x153e	; 0x153e <__prologue_saves__+0x20>
     ce6:	ae 01       	movw	r20, r28
     ce8:	4b 5f       	subi	r20, 0xFB	; 251
     cea:	5f 4f       	sbci	r21, 0xFF	; 255
     cec:	fa 01       	movw	r30, r20
     cee:	61 91       	ld	r22, Z+
     cf0:	71 91       	ld	r23, Z+
     cf2:	af 01       	movw	r20, r30
     cf4:	80 91 e5 02 	lds	r24, 0x02E5	; 0x8002e5 <__iob+0x2>
     cf8:	90 91 e6 02 	lds	r25, 0x02E6	; 0x8002e6 <__iob+0x3>
     cfc:	0e 94 ba 06 	call	0xd74	; 0xd74 <vfprintf>
     d00:	e2 e0       	ldi	r30, 0x02	; 2
     d02:	0c 94 bb 0a 	jmp	0x1576	; 0x1576 <__epilogue_restores__+0x20>

00000d06 <putchar>:
     d06:	60 91 e5 02 	lds	r22, 0x02E5	; 0x8002e5 <__iob+0x2>
     d0a:	70 91 e6 02 	lds	r23, 0x02E6	; 0x8002e6 <__iob+0x3>
     d0e:	0e 94 f5 09 	call	0x13ea	; 0x13ea <fputc>
     d12:	08 95       	ret

00000d14 <puts>:
     d14:	0f 93       	push	r16
     d16:	1f 93       	push	r17
     d18:	cf 93       	push	r28
     d1a:	df 93       	push	r29
     d1c:	e0 91 e5 02 	lds	r30, 0x02E5	; 0x8002e5 <__iob+0x2>
     d20:	f0 91 e6 02 	lds	r31, 0x02E6	; 0x8002e6 <__iob+0x3>
     d24:	23 81       	ldd	r18, Z+3	; 0x03
     d26:	21 ff       	sbrs	r18, 1
     d28:	1b c0       	rjmp	.+54     	; 0xd60 <puts+0x4c>
     d2a:	8c 01       	movw	r16, r24
     d2c:	d0 e0       	ldi	r29, 0x00	; 0
     d2e:	c0 e0       	ldi	r28, 0x00	; 0
     d30:	f8 01       	movw	r30, r16
     d32:	81 91       	ld	r24, Z+
     d34:	8f 01       	movw	r16, r30
     d36:	60 91 e5 02 	lds	r22, 0x02E5	; 0x8002e5 <__iob+0x2>
     d3a:	70 91 e6 02 	lds	r23, 0x02E6	; 0x8002e6 <__iob+0x3>
     d3e:	db 01       	movw	r26, r22
     d40:	18 96       	adiw	r26, 0x08	; 8
     d42:	ed 91       	ld	r30, X+
     d44:	fc 91       	ld	r31, X
     d46:	19 97       	sbiw	r26, 0x09	; 9
     d48:	88 23       	and	r24, r24
     d4a:	31 f0       	breq	.+12     	; 0xd58 <puts+0x44>
     d4c:	09 95       	icall
     d4e:	89 2b       	or	r24, r25
     d50:	79 f3       	breq	.-34     	; 0xd30 <puts+0x1c>
     d52:	df ef       	ldi	r29, 0xFF	; 255
     d54:	cf ef       	ldi	r28, 0xFF	; 255
     d56:	ec cf       	rjmp	.-40     	; 0xd30 <puts+0x1c>
     d58:	8a e0       	ldi	r24, 0x0A	; 10
     d5a:	09 95       	icall
     d5c:	89 2b       	or	r24, r25
     d5e:	19 f0       	breq	.+6      	; 0xd66 <puts+0x52>
     d60:	8f ef       	ldi	r24, 0xFF	; 255
     d62:	9f ef       	ldi	r25, 0xFF	; 255
     d64:	02 c0       	rjmp	.+4      	; 0xd6a <puts+0x56>
     d66:	8d 2f       	mov	r24, r29
     d68:	9c 2f       	mov	r25, r28
     d6a:	df 91       	pop	r29
     d6c:	cf 91       	pop	r28
     d6e:	1f 91       	pop	r17
     d70:	0f 91       	pop	r16
     d72:	08 95       	ret

00000d74 <vfprintf>:
     d74:	ab e0       	ldi	r26, 0x0B	; 11
     d76:	b0 e0       	ldi	r27, 0x00	; 0
     d78:	e0 ec       	ldi	r30, 0xC0	; 192
     d7a:	f6 e0       	ldi	r31, 0x06	; 6
     d7c:	0c 94 8f 0a 	jmp	0x151e	; 0x151e <__prologue_saves__>
     d80:	6c 01       	movw	r12, r24
     d82:	7b 01       	movw	r14, r22
     d84:	8a 01       	movw	r16, r20
     d86:	fc 01       	movw	r30, r24
     d88:	17 82       	std	Z+7, r1	; 0x07
     d8a:	16 82       	std	Z+6, r1	; 0x06
     d8c:	83 81       	ldd	r24, Z+3	; 0x03
     d8e:	81 ff       	sbrs	r24, 1
     d90:	cc c1       	rjmp	.+920    	; 0x112a <vfprintf+0x3b6>
     d92:	ce 01       	movw	r24, r28
     d94:	01 96       	adiw	r24, 0x01	; 1
     d96:	3c 01       	movw	r6, r24
     d98:	f6 01       	movw	r30, r12
     d9a:	93 81       	ldd	r25, Z+3	; 0x03
     d9c:	f7 01       	movw	r30, r14
     d9e:	93 fd       	sbrc	r25, 3
     da0:	85 91       	lpm	r24, Z+
     da2:	93 ff       	sbrs	r25, 3
     da4:	81 91       	ld	r24, Z+
     da6:	7f 01       	movw	r14, r30
     da8:	88 23       	and	r24, r24
     daa:	09 f4       	brne	.+2      	; 0xdae <vfprintf+0x3a>
     dac:	ba c1       	rjmp	.+884    	; 0x1122 <vfprintf+0x3ae>
     dae:	85 32       	cpi	r24, 0x25	; 37
     db0:	39 f4       	brne	.+14     	; 0xdc0 <vfprintf+0x4c>
     db2:	93 fd       	sbrc	r25, 3
     db4:	85 91       	lpm	r24, Z+
     db6:	93 ff       	sbrs	r25, 3
     db8:	81 91       	ld	r24, Z+
     dba:	7f 01       	movw	r14, r30
     dbc:	85 32       	cpi	r24, 0x25	; 37
     dbe:	29 f4       	brne	.+10     	; 0xdca <vfprintf+0x56>
     dc0:	b6 01       	movw	r22, r12
     dc2:	90 e0       	ldi	r25, 0x00	; 0
     dc4:	0e 94 f5 09 	call	0x13ea	; 0x13ea <fputc>
     dc8:	e7 cf       	rjmp	.-50     	; 0xd98 <vfprintf+0x24>
     dca:	91 2c       	mov	r9, r1
     dcc:	21 2c       	mov	r2, r1
     dce:	31 2c       	mov	r3, r1
     dd0:	ff e1       	ldi	r31, 0x1F	; 31
     dd2:	f3 15       	cp	r31, r3
     dd4:	d8 f0       	brcs	.+54     	; 0xe0c <vfprintf+0x98>
     dd6:	8b 32       	cpi	r24, 0x2B	; 43
     dd8:	79 f0       	breq	.+30     	; 0xdf8 <vfprintf+0x84>
     dda:	38 f4       	brcc	.+14     	; 0xdea <vfprintf+0x76>
     ddc:	80 32       	cpi	r24, 0x20	; 32
     dde:	79 f0       	breq	.+30     	; 0xdfe <vfprintf+0x8a>
     de0:	83 32       	cpi	r24, 0x23	; 35
     de2:	a1 f4       	brne	.+40     	; 0xe0c <vfprintf+0x98>
     de4:	23 2d       	mov	r18, r3
     de6:	20 61       	ori	r18, 0x10	; 16
     de8:	1d c0       	rjmp	.+58     	; 0xe24 <vfprintf+0xb0>
     dea:	8d 32       	cpi	r24, 0x2D	; 45
     dec:	61 f0       	breq	.+24     	; 0xe06 <vfprintf+0x92>
     dee:	80 33       	cpi	r24, 0x30	; 48
     df0:	69 f4       	brne	.+26     	; 0xe0c <vfprintf+0x98>
     df2:	23 2d       	mov	r18, r3
     df4:	21 60       	ori	r18, 0x01	; 1
     df6:	16 c0       	rjmp	.+44     	; 0xe24 <vfprintf+0xb0>
     df8:	83 2d       	mov	r24, r3
     dfa:	82 60       	ori	r24, 0x02	; 2
     dfc:	38 2e       	mov	r3, r24
     dfe:	e3 2d       	mov	r30, r3
     e00:	e4 60       	ori	r30, 0x04	; 4
     e02:	3e 2e       	mov	r3, r30
     e04:	2a c0       	rjmp	.+84     	; 0xe5a <vfprintf+0xe6>
     e06:	f3 2d       	mov	r31, r3
     e08:	f8 60       	ori	r31, 0x08	; 8
     e0a:	1d c0       	rjmp	.+58     	; 0xe46 <vfprintf+0xd2>
     e0c:	37 fc       	sbrc	r3, 7
     e0e:	2d c0       	rjmp	.+90     	; 0xe6a <vfprintf+0xf6>
     e10:	20 ed       	ldi	r18, 0xD0	; 208
     e12:	28 0f       	add	r18, r24
     e14:	2a 30       	cpi	r18, 0x0A	; 10
     e16:	40 f0       	brcs	.+16     	; 0xe28 <vfprintf+0xb4>
     e18:	8e 32       	cpi	r24, 0x2E	; 46
     e1a:	b9 f4       	brne	.+46     	; 0xe4a <vfprintf+0xd6>
     e1c:	36 fc       	sbrc	r3, 6
     e1e:	81 c1       	rjmp	.+770    	; 0x1122 <vfprintf+0x3ae>
     e20:	23 2d       	mov	r18, r3
     e22:	20 64       	ori	r18, 0x40	; 64
     e24:	32 2e       	mov	r3, r18
     e26:	19 c0       	rjmp	.+50     	; 0xe5a <vfprintf+0xe6>
     e28:	36 fe       	sbrs	r3, 6
     e2a:	06 c0       	rjmp	.+12     	; 0xe38 <vfprintf+0xc4>
     e2c:	8a e0       	ldi	r24, 0x0A	; 10
     e2e:	98 9e       	mul	r9, r24
     e30:	20 0d       	add	r18, r0
     e32:	11 24       	eor	r1, r1
     e34:	92 2e       	mov	r9, r18
     e36:	11 c0       	rjmp	.+34     	; 0xe5a <vfprintf+0xe6>
     e38:	ea e0       	ldi	r30, 0x0A	; 10
     e3a:	2e 9e       	mul	r2, r30
     e3c:	20 0d       	add	r18, r0
     e3e:	11 24       	eor	r1, r1
     e40:	22 2e       	mov	r2, r18
     e42:	f3 2d       	mov	r31, r3
     e44:	f0 62       	ori	r31, 0x20	; 32
     e46:	3f 2e       	mov	r3, r31
     e48:	08 c0       	rjmp	.+16     	; 0xe5a <vfprintf+0xe6>
     e4a:	8c 36       	cpi	r24, 0x6C	; 108
     e4c:	21 f4       	brne	.+8      	; 0xe56 <vfprintf+0xe2>
     e4e:	83 2d       	mov	r24, r3
     e50:	80 68       	ori	r24, 0x80	; 128
     e52:	38 2e       	mov	r3, r24
     e54:	02 c0       	rjmp	.+4      	; 0xe5a <vfprintf+0xe6>
     e56:	88 36       	cpi	r24, 0x68	; 104
     e58:	41 f4       	brne	.+16     	; 0xe6a <vfprintf+0xf6>
     e5a:	f7 01       	movw	r30, r14
     e5c:	93 fd       	sbrc	r25, 3
     e5e:	85 91       	lpm	r24, Z+
     e60:	93 ff       	sbrs	r25, 3
     e62:	81 91       	ld	r24, Z+
     e64:	7f 01       	movw	r14, r30
     e66:	81 11       	cpse	r24, r1
     e68:	b3 cf       	rjmp	.-154    	; 0xdd0 <vfprintf+0x5c>
     e6a:	98 2f       	mov	r25, r24
     e6c:	9f 7d       	andi	r25, 0xDF	; 223
     e6e:	95 54       	subi	r25, 0x45	; 69
     e70:	93 30       	cpi	r25, 0x03	; 3
     e72:	28 f4       	brcc	.+10     	; 0xe7e <vfprintf+0x10a>
     e74:	0c 5f       	subi	r16, 0xFC	; 252
     e76:	1f 4f       	sbci	r17, 0xFF	; 255
     e78:	9f e3       	ldi	r25, 0x3F	; 63
     e7a:	99 83       	std	Y+1, r25	; 0x01
     e7c:	0d c0       	rjmp	.+26     	; 0xe98 <vfprintf+0x124>
     e7e:	83 36       	cpi	r24, 0x63	; 99
     e80:	31 f0       	breq	.+12     	; 0xe8e <vfprintf+0x11a>
     e82:	83 37       	cpi	r24, 0x73	; 115
     e84:	71 f0       	breq	.+28     	; 0xea2 <vfprintf+0x12e>
     e86:	83 35       	cpi	r24, 0x53	; 83
     e88:	09 f0       	breq	.+2      	; 0xe8c <vfprintf+0x118>
     e8a:	59 c0       	rjmp	.+178    	; 0xf3e <vfprintf+0x1ca>
     e8c:	21 c0       	rjmp	.+66     	; 0xed0 <vfprintf+0x15c>
     e8e:	f8 01       	movw	r30, r16
     e90:	80 81       	ld	r24, Z
     e92:	89 83       	std	Y+1, r24	; 0x01
     e94:	0e 5f       	subi	r16, 0xFE	; 254
     e96:	1f 4f       	sbci	r17, 0xFF	; 255
     e98:	88 24       	eor	r8, r8
     e9a:	83 94       	inc	r8
     e9c:	91 2c       	mov	r9, r1
     e9e:	53 01       	movw	r10, r6
     ea0:	13 c0       	rjmp	.+38     	; 0xec8 <vfprintf+0x154>
     ea2:	28 01       	movw	r4, r16
     ea4:	f2 e0       	ldi	r31, 0x02	; 2
     ea6:	4f 0e       	add	r4, r31
     ea8:	51 1c       	adc	r5, r1
     eaa:	f8 01       	movw	r30, r16
     eac:	a0 80       	ld	r10, Z
     eae:	b1 80       	ldd	r11, Z+1	; 0x01
     eb0:	36 fe       	sbrs	r3, 6
     eb2:	03 c0       	rjmp	.+6      	; 0xeba <vfprintf+0x146>
     eb4:	69 2d       	mov	r22, r9
     eb6:	70 e0       	ldi	r23, 0x00	; 0
     eb8:	02 c0       	rjmp	.+4      	; 0xebe <vfprintf+0x14a>
     eba:	6f ef       	ldi	r22, 0xFF	; 255
     ebc:	7f ef       	ldi	r23, 0xFF	; 255
     ebe:	c5 01       	movw	r24, r10
     ec0:	0e 94 ea 09 	call	0x13d4	; 0x13d4 <strnlen>
     ec4:	4c 01       	movw	r8, r24
     ec6:	82 01       	movw	r16, r4
     ec8:	f3 2d       	mov	r31, r3
     eca:	ff 77       	andi	r31, 0x7F	; 127
     ecc:	3f 2e       	mov	r3, r31
     ece:	16 c0       	rjmp	.+44     	; 0xefc <vfprintf+0x188>
     ed0:	28 01       	movw	r4, r16
     ed2:	22 e0       	ldi	r18, 0x02	; 2
     ed4:	42 0e       	add	r4, r18
     ed6:	51 1c       	adc	r5, r1
     ed8:	f8 01       	movw	r30, r16
     eda:	a0 80       	ld	r10, Z
     edc:	b1 80       	ldd	r11, Z+1	; 0x01
     ede:	36 fe       	sbrs	r3, 6
     ee0:	03 c0       	rjmp	.+6      	; 0xee8 <vfprintf+0x174>
     ee2:	69 2d       	mov	r22, r9
     ee4:	70 e0       	ldi	r23, 0x00	; 0
     ee6:	02 c0       	rjmp	.+4      	; 0xeec <vfprintf+0x178>
     ee8:	6f ef       	ldi	r22, 0xFF	; 255
     eea:	7f ef       	ldi	r23, 0xFF	; 255
     eec:	c5 01       	movw	r24, r10
     eee:	0e 94 d8 09 	call	0x13b0	; 0x13b0 <strnlen_P>
     ef2:	4c 01       	movw	r8, r24
     ef4:	f3 2d       	mov	r31, r3
     ef6:	f0 68       	ori	r31, 0x80	; 128
     ef8:	3f 2e       	mov	r3, r31
     efa:	82 01       	movw	r16, r4
     efc:	33 fc       	sbrc	r3, 3
     efe:	1b c0       	rjmp	.+54     	; 0xf36 <vfprintf+0x1c2>
     f00:	82 2d       	mov	r24, r2
     f02:	90 e0       	ldi	r25, 0x00	; 0
     f04:	88 16       	cp	r8, r24
     f06:	99 06       	cpc	r9, r25
     f08:	b0 f4       	brcc	.+44     	; 0xf36 <vfprintf+0x1c2>
     f0a:	b6 01       	movw	r22, r12
     f0c:	80 e2       	ldi	r24, 0x20	; 32
     f0e:	90 e0       	ldi	r25, 0x00	; 0
     f10:	0e 94 f5 09 	call	0x13ea	; 0x13ea <fputc>
     f14:	2a 94       	dec	r2
     f16:	f4 cf       	rjmp	.-24     	; 0xf00 <vfprintf+0x18c>
     f18:	f5 01       	movw	r30, r10
     f1a:	37 fc       	sbrc	r3, 7
     f1c:	85 91       	lpm	r24, Z+
     f1e:	37 fe       	sbrs	r3, 7
     f20:	81 91       	ld	r24, Z+
     f22:	5f 01       	movw	r10, r30
     f24:	b6 01       	movw	r22, r12
     f26:	90 e0       	ldi	r25, 0x00	; 0
     f28:	0e 94 f5 09 	call	0x13ea	; 0x13ea <fputc>
     f2c:	21 10       	cpse	r2, r1
     f2e:	2a 94       	dec	r2
     f30:	21 e0       	ldi	r18, 0x01	; 1
     f32:	82 1a       	sub	r8, r18
     f34:	91 08       	sbc	r9, r1
     f36:	81 14       	cp	r8, r1
     f38:	91 04       	cpc	r9, r1
     f3a:	71 f7       	brne	.-36     	; 0xf18 <vfprintf+0x1a4>
     f3c:	e8 c0       	rjmp	.+464    	; 0x110e <vfprintf+0x39a>
     f3e:	84 36       	cpi	r24, 0x64	; 100
     f40:	11 f0       	breq	.+4      	; 0xf46 <vfprintf+0x1d2>
     f42:	89 36       	cpi	r24, 0x69	; 105
     f44:	41 f5       	brne	.+80     	; 0xf96 <vfprintf+0x222>
     f46:	f8 01       	movw	r30, r16
     f48:	37 fe       	sbrs	r3, 7
     f4a:	07 c0       	rjmp	.+14     	; 0xf5a <vfprintf+0x1e6>
     f4c:	60 81       	ld	r22, Z
     f4e:	71 81       	ldd	r23, Z+1	; 0x01
     f50:	82 81       	ldd	r24, Z+2	; 0x02
     f52:	93 81       	ldd	r25, Z+3	; 0x03
     f54:	0c 5f       	subi	r16, 0xFC	; 252
     f56:	1f 4f       	sbci	r17, 0xFF	; 255
     f58:	08 c0       	rjmp	.+16     	; 0xf6a <vfprintf+0x1f6>
     f5a:	60 81       	ld	r22, Z
     f5c:	71 81       	ldd	r23, Z+1	; 0x01
     f5e:	07 2e       	mov	r0, r23
     f60:	00 0c       	add	r0, r0
     f62:	88 0b       	sbc	r24, r24
     f64:	99 0b       	sbc	r25, r25
     f66:	0e 5f       	subi	r16, 0xFE	; 254
     f68:	1f 4f       	sbci	r17, 0xFF	; 255
     f6a:	f3 2d       	mov	r31, r3
     f6c:	ff 76       	andi	r31, 0x6F	; 111
     f6e:	3f 2e       	mov	r3, r31
     f70:	97 ff       	sbrs	r25, 7
     f72:	09 c0       	rjmp	.+18     	; 0xf86 <vfprintf+0x212>
     f74:	90 95       	com	r25
     f76:	80 95       	com	r24
     f78:	70 95       	com	r23
     f7a:	61 95       	neg	r22
     f7c:	7f 4f       	sbci	r23, 0xFF	; 255
     f7e:	8f 4f       	sbci	r24, 0xFF	; 255
     f80:	9f 4f       	sbci	r25, 0xFF	; 255
     f82:	f0 68       	ori	r31, 0x80	; 128
     f84:	3f 2e       	mov	r3, r31
     f86:	2a e0       	ldi	r18, 0x0A	; 10
     f88:	30 e0       	ldi	r19, 0x00	; 0
     f8a:	a3 01       	movw	r20, r6
     f8c:	0e 94 31 0a 	call	0x1462	; 0x1462 <__ultoa_invert>
     f90:	88 2e       	mov	r8, r24
     f92:	86 18       	sub	r8, r6
     f94:	45 c0       	rjmp	.+138    	; 0x1020 <vfprintf+0x2ac>
     f96:	85 37       	cpi	r24, 0x75	; 117
     f98:	31 f4       	brne	.+12     	; 0xfa6 <vfprintf+0x232>
     f9a:	23 2d       	mov	r18, r3
     f9c:	2f 7e       	andi	r18, 0xEF	; 239
     f9e:	b2 2e       	mov	r11, r18
     fa0:	2a e0       	ldi	r18, 0x0A	; 10
     fa2:	30 e0       	ldi	r19, 0x00	; 0
     fa4:	25 c0       	rjmp	.+74     	; 0xff0 <vfprintf+0x27c>
     fa6:	93 2d       	mov	r25, r3
     fa8:	99 7f       	andi	r25, 0xF9	; 249
     faa:	b9 2e       	mov	r11, r25
     fac:	8f 36       	cpi	r24, 0x6F	; 111
     fae:	c1 f0       	breq	.+48     	; 0xfe0 <vfprintf+0x26c>
     fb0:	18 f4       	brcc	.+6      	; 0xfb8 <vfprintf+0x244>
     fb2:	88 35       	cpi	r24, 0x58	; 88
     fb4:	79 f0       	breq	.+30     	; 0xfd4 <vfprintf+0x260>
     fb6:	b5 c0       	rjmp	.+362    	; 0x1122 <vfprintf+0x3ae>
     fb8:	80 37       	cpi	r24, 0x70	; 112
     fba:	19 f0       	breq	.+6      	; 0xfc2 <vfprintf+0x24e>
     fbc:	88 37       	cpi	r24, 0x78	; 120
     fbe:	21 f0       	breq	.+8      	; 0xfc8 <vfprintf+0x254>
     fc0:	b0 c0       	rjmp	.+352    	; 0x1122 <vfprintf+0x3ae>
     fc2:	e9 2f       	mov	r30, r25
     fc4:	e0 61       	ori	r30, 0x10	; 16
     fc6:	be 2e       	mov	r11, r30
     fc8:	b4 fe       	sbrs	r11, 4
     fca:	0d c0       	rjmp	.+26     	; 0xfe6 <vfprintf+0x272>
     fcc:	fb 2d       	mov	r31, r11
     fce:	f4 60       	ori	r31, 0x04	; 4
     fd0:	bf 2e       	mov	r11, r31
     fd2:	09 c0       	rjmp	.+18     	; 0xfe6 <vfprintf+0x272>
     fd4:	34 fe       	sbrs	r3, 4
     fd6:	0a c0       	rjmp	.+20     	; 0xfec <vfprintf+0x278>
     fd8:	29 2f       	mov	r18, r25
     fda:	26 60       	ori	r18, 0x06	; 6
     fdc:	b2 2e       	mov	r11, r18
     fde:	06 c0       	rjmp	.+12     	; 0xfec <vfprintf+0x278>
     fe0:	28 e0       	ldi	r18, 0x08	; 8
     fe2:	30 e0       	ldi	r19, 0x00	; 0
     fe4:	05 c0       	rjmp	.+10     	; 0xff0 <vfprintf+0x27c>
     fe6:	20 e1       	ldi	r18, 0x10	; 16
     fe8:	30 e0       	ldi	r19, 0x00	; 0
     fea:	02 c0       	rjmp	.+4      	; 0xff0 <vfprintf+0x27c>
     fec:	20 e1       	ldi	r18, 0x10	; 16
     fee:	32 e0       	ldi	r19, 0x02	; 2
     ff0:	f8 01       	movw	r30, r16
     ff2:	b7 fe       	sbrs	r11, 7
     ff4:	07 c0       	rjmp	.+14     	; 0x1004 <vfprintf+0x290>
     ff6:	60 81       	ld	r22, Z
     ff8:	71 81       	ldd	r23, Z+1	; 0x01
     ffa:	82 81       	ldd	r24, Z+2	; 0x02
     ffc:	93 81       	ldd	r25, Z+3	; 0x03
     ffe:	0c 5f       	subi	r16, 0xFC	; 252
    1000:	1f 4f       	sbci	r17, 0xFF	; 255
    1002:	06 c0       	rjmp	.+12     	; 0x1010 <vfprintf+0x29c>
    1004:	60 81       	ld	r22, Z
    1006:	71 81       	ldd	r23, Z+1	; 0x01
    1008:	80 e0       	ldi	r24, 0x00	; 0
    100a:	90 e0       	ldi	r25, 0x00	; 0
    100c:	0e 5f       	subi	r16, 0xFE	; 254
    100e:	1f 4f       	sbci	r17, 0xFF	; 255
    1010:	a3 01       	movw	r20, r6
    1012:	0e 94 31 0a 	call	0x1462	; 0x1462 <__ultoa_invert>
    1016:	88 2e       	mov	r8, r24
    1018:	86 18       	sub	r8, r6
    101a:	fb 2d       	mov	r31, r11
    101c:	ff 77       	andi	r31, 0x7F	; 127
    101e:	3f 2e       	mov	r3, r31
    1020:	36 fe       	sbrs	r3, 6
    1022:	0d c0       	rjmp	.+26     	; 0x103e <vfprintf+0x2ca>
    1024:	23 2d       	mov	r18, r3
    1026:	2e 7f       	andi	r18, 0xFE	; 254
    1028:	a2 2e       	mov	r10, r18
    102a:	89 14       	cp	r8, r9
    102c:	58 f4       	brcc	.+22     	; 0x1044 <vfprintf+0x2d0>
    102e:	34 fe       	sbrs	r3, 4
    1030:	0b c0       	rjmp	.+22     	; 0x1048 <vfprintf+0x2d4>
    1032:	32 fc       	sbrc	r3, 2
    1034:	09 c0       	rjmp	.+18     	; 0x1048 <vfprintf+0x2d4>
    1036:	83 2d       	mov	r24, r3
    1038:	8e 7e       	andi	r24, 0xEE	; 238
    103a:	a8 2e       	mov	r10, r24
    103c:	05 c0       	rjmp	.+10     	; 0x1048 <vfprintf+0x2d4>
    103e:	b8 2c       	mov	r11, r8
    1040:	a3 2c       	mov	r10, r3
    1042:	03 c0       	rjmp	.+6      	; 0x104a <vfprintf+0x2d6>
    1044:	b8 2c       	mov	r11, r8
    1046:	01 c0       	rjmp	.+2      	; 0x104a <vfprintf+0x2d6>
    1048:	b9 2c       	mov	r11, r9
    104a:	a4 fe       	sbrs	r10, 4
    104c:	0f c0       	rjmp	.+30     	; 0x106c <vfprintf+0x2f8>
    104e:	fe 01       	movw	r30, r28
    1050:	e8 0d       	add	r30, r8
    1052:	f1 1d       	adc	r31, r1
    1054:	80 81       	ld	r24, Z
    1056:	80 33       	cpi	r24, 0x30	; 48
    1058:	21 f4       	brne	.+8      	; 0x1062 <vfprintf+0x2ee>
    105a:	9a 2d       	mov	r25, r10
    105c:	99 7e       	andi	r25, 0xE9	; 233
    105e:	a9 2e       	mov	r10, r25
    1060:	09 c0       	rjmp	.+18     	; 0x1074 <vfprintf+0x300>
    1062:	a2 fe       	sbrs	r10, 2
    1064:	06 c0       	rjmp	.+12     	; 0x1072 <vfprintf+0x2fe>
    1066:	b3 94       	inc	r11
    1068:	b3 94       	inc	r11
    106a:	04 c0       	rjmp	.+8      	; 0x1074 <vfprintf+0x300>
    106c:	8a 2d       	mov	r24, r10
    106e:	86 78       	andi	r24, 0x86	; 134
    1070:	09 f0       	breq	.+2      	; 0x1074 <vfprintf+0x300>
    1072:	b3 94       	inc	r11
    1074:	a3 fc       	sbrc	r10, 3
    1076:	11 c0       	rjmp	.+34     	; 0x109a <vfprintf+0x326>
    1078:	a0 fe       	sbrs	r10, 0
    107a:	06 c0       	rjmp	.+12     	; 0x1088 <vfprintf+0x314>
    107c:	b2 14       	cp	r11, r2
    107e:	88 f4       	brcc	.+34     	; 0x10a2 <vfprintf+0x32e>
    1080:	28 0c       	add	r2, r8
    1082:	92 2c       	mov	r9, r2
    1084:	9b 18       	sub	r9, r11
    1086:	0e c0       	rjmp	.+28     	; 0x10a4 <vfprintf+0x330>
    1088:	b2 14       	cp	r11, r2
    108a:	60 f4       	brcc	.+24     	; 0x10a4 <vfprintf+0x330>
    108c:	b6 01       	movw	r22, r12
    108e:	80 e2       	ldi	r24, 0x20	; 32
    1090:	90 e0       	ldi	r25, 0x00	; 0
    1092:	0e 94 f5 09 	call	0x13ea	; 0x13ea <fputc>
    1096:	b3 94       	inc	r11
    1098:	f7 cf       	rjmp	.-18     	; 0x1088 <vfprintf+0x314>
    109a:	b2 14       	cp	r11, r2
    109c:	18 f4       	brcc	.+6      	; 0x10a4 <vfprintf+0x330>
    109e:	2b 18       	sub	r2, r11
    10a0:	02 c0       	rjmp	.+4      	; 0x10a6 <vfprintf+0x332>
    10a2:	98 2c       	mov	r9, r8
    10a4:	21 2c       	mov	r2, r1
    10a6:	a4 fe       	sbrs	r10, 4
    10a8:	10 c0       	rjmp	.+32     	; 0x10ca <vfprintf+0x356>
    10aa:	b6 01       	movw	r22, r12
    10ac:	80 e3       	ldi	r24, 0x30	; 48
    10ae:	90 e0       	ldi	r25, 0x00	; 0
    10b0:	0e 94 f5 09 	call	0x13ea	; 0x13ea <fputc>
    10b4:	a2 fe       	sbrs	r10, 2
    10b6:	17 c0       	rjmp	.+46     	; 0x10e6 <vfprintf+0x372>
    10b8:	a1 fc       	sbrc	r10, 1
    10ba:	03 c0       	rjmp	.+6      	; 0x10c2 <vfprintf+0x34e>
    10bc:	88 e7       	ldi	r24, 0x78	; 120
    10be:	90 e0       	ldi	r25, 0x00	; 0
    10c0:	02 c0       	rjmp	.+4      	; 0x10c6 <vfprintf+0x352>
    10c2:	88 e5       	ldi	r24, 0x58	; 88
    10c4:	90 e0       	ldi	r25, 0x00	; 0
    10c6:	b6 01       	movw	r22, r12
    10c8:	0c c0       	rjmp	.+24     	; 0x10e2 <vfprintf+0x36e>
    10ca:	8a 2d       	mov	r24, r10
    10cc:	86 78       	andi	r24, 0x86	; 134
    10ce:	59 f0       	breq	.+22     	; 0x10e6 <vfprintf+0x372>
    10d0:	a1 fe       	sbrs	r10, 1
    10d2:	02 c0       	rjmp	.+4      	; 0x10d8 <vfprintf+0x364>
    10d4:	8b e2       	ldi	r24, 0x2B	; 43
    10d6:	01 c0       	rjmp	.+2      	; 0x10da <vfprintf+0x366>
    10d8:	80 e2       	ldi	r24, 0x20	; 32
    10da:	a7 fc       	sbrc	r10, 7
    10dc:	8d e2       	ldi	r24, 0x2D	; 45
    10de:	b6 01       	movw	r22, r12
    10e0:	90 e0       	ldi	r25, 0x00	; 0
    10e2:	0e 94 f5 09 	call	0x13ea	; 0x13ea <fputc>
    10e6:	89 14       	cp	r8, r9
    10e8:	38 f4       	brcc	.+14     	; 0x10f8 <vfprintf+0x384>
    10ea:	b6 01       	movw	r22, r12
    10ec:	80 e3       	ldi	r24, 0x30	; 48
    10ee:	90 e0       	ldi	r25, 0x00	; 0
    10f0:	0e 94 f5 09 	call	0x13ea	; 0x13ea <fputc>
    10f4:	9a 94       	dec	r9
    10f6:	f7 cf       	rjmp	.-18     	; 0x10e6 <vfprintf+0x372>
    10f8:	8a 94       	dec	r8
    10fa:	f3 01       	movw	r30, r6
    10fc:	e8 0d       	add	r30, r8
    10fe:	f1 1d       	adc	r31, r1
    1100:	80 81       	ld	r24, Z
    1102:	b6 01       	movw	r22, r12
    1104:	90 e0       	ldi	r25, 0x00	; 0
    1106:	0e 94 f5 09 	call	0x13ea	; 0x13ea <fputc>
    110a:	81 10       	cpse	r8, r1
    110c:	f5 cf       	rjmp	.-22     	; 0x10f8 <vfprintf+0x384>
    110e:	22 20       	and	r2, r2
    1110:	09 f4       	brne	.+2      	; 0x1114 <vfprintf+0x3a0>
    1112:	42 ce       	rjmp	.-892    	; 0xd98 <vfprintf+0x24>
    1114:	b6 01       	movw	r22, r12
    1116:	80 e2       	ldi	r24, 0x20	; 32
    1118:	90 e0       	ldi	r25, 0x00	; 0
    111a:	0e 94 f5 09 	call	0x13ea	; 0x13ea <fputc>
    111e:	2a 94       	dec	r2
    1120:	f6 cf       	rjmp	.-20     	; 0x110e <vfprintf+0x39a>
    1122:	f6 01       	movw	r30, r12
    1124:	86 81       	ldd	r24, Z+6	; 0x06
    1126:	97 81       	ldd	r25, Z+7	; 0x07
    1128:	02 c0       	rjmp	.+4      	; 0x112e <vfprintf+0x3ba>
    112a:	8f ef       	ldi	r24, 0xFF	; 255
    112c:	9f ef       	ldi	r25, 0xFF	; 255
    112e:	2b 96       	adiw	r28, 0x0b	; 11
    1130:	e2 e1       	ldi	r30, 0x12	; 18
    1132:	0c 94 ab 0a 	jmp	0x1556	; 0x1556 <__epilogue_restores__>

00001136 <calloc>:
    1136:	0f 93       	push	r16
    1138:	1f 93       	push	r17
    113a:	cf 93       	push	r28
    113c:	df 93       	push	r29
    113e:	86 9f       	mul	r24, r22
    1140:	80 01       	movw	r16, r0
    1142:	87 9f       	mul	r24, r23
    1144:	10 0d       	add	r17, r0
    1146:	96 9f       	mul	r25, r22
    1148:	10 0d       	add	r17, r0
    114a:	11 24       	eor	r1, r1
    114c:	c8 01       	movw	r24, r16
    114e:	0e 94 b7 08 	call	0x116e	; 0x116e <malloc>
    1152:	ec 01       	movw	r28, r24
    1154:	00 97       	sbiw	r24, 0x00	; 0
    1156:	29 f0       	breq	.+10     	; 0x1162 <calloc+0x2c>
    1158:	a8 01       	movw	r20, r16
    115a:	60 e0       	ldi	r22, 0x00	; 0
    115c:	70 e0       	ldi	r23, 0x00	; 0
    115e:	0e 94 e3 09 	call	0x13c6	; 0x13c6 <memset>
    1162:	ce 01       	movw	r24, r28
    1164:	df 91       	pop	r29
    1166:	cf 91       	pop	r28
    1168:	1f 91       	pop	r17
    116a:	0f 91       	pop	r16
    116c:	08 95       	ret

0000116e <malloc>:
    116e:	0f 93       	push	r16
    1170:	1f 93       	push	r17
    1172:	cf 93       	push	r28
    1174:	df 93       	push	r29
    1176:	82 30       	cpi	r24, 0x02	; 2
    1178:	91 05       	cpc	r25, r1
    117a:	10 f4       	brcc	.+4      	; 0x1180 <malloc+0x12>
    117c:	82 e0       	ldi	r24, 0x02	; 2
    117e:	90 e0       	ldi	r25, 0x00	; 0
    1180:	e0 91 eb 02 	lds	r30, 0x02EB	; 0x8002eb <__flp>
    1184:	f0 91 ec 02 	lds	r31, 0x02EC	; 0x8002ec <__flp+0x1>
    1188:	20 e0       	ldi	r18, 0x00	; 0
    118a:	30 e0       	ldi	r19, 0x00	; 0
    118c:	a0 e0       	ldi	r26, 0x00	; 0
    118e:	b0 e0       	ldi	r27, 0x00	; 0
    1190:	30 97       	sbiw	r30, 0x00	; 0
    1192:	19 f1       	breq	.+70     	; 0x11da <malloc+0x6c>
    1194:	40 81       	ld	r20, Z
    1196:	51 81       	ldd	r21, Z+1	; 0x01
    1198:	02 81       	ldd	r16, Z+2	; 0x02
    119a:	13 81       	ldd	r17, Z+3	; 0x03
    119c:	48 17       	cp	r20, r24
    119e:	59 07       	cpc	r21, r25
    11a0:	c8 f0       	brcs	.+50     	; 0x11d4 <malloc+0x66>
    11a2:	84 17       	cp	r24, r20
    11a4:	95 07       	cpc	r25, r21
    11a6:	69 f4       	brne	.+26     	; 0x11c2 <malloc+0x54>
    11a8:	10 97       	sbiw	r26, 0x00	; 0
    11aa:	31 f0       	breq	.+12     	; 0x11b8 <malloc+0x4a>
    11ac:	12 96       	adiw	r26, 0x02	; 2
    11ae:	0c 93       	st	X, r16
    11b0:	12 97       	sbiw	r26, 0x02	; 2
    11b2:	13 96       	adiw	r26, 0x03	; 3
    11b4:	1c 93       	st	X, r17
    11b6:	27 c0       	rjmp	.+78     	; 0x1206 <malloc+0x98>
    11b8:	00 93 eb 02 	sts	0x02EB, r16	; 0x8002eb <__flp>
    11bc:	10 93 ec 02 	sts	0x02EC, r17	; 0x8002ec <__flp+0x1>
    11c0:	22 c0       	rjmp	.+68     	; 0x1206 <malloc+0x98>
    11c2:	21 15       	cp	r18, r1
    11c4:	31 05       	cpc	r19, r1
    11c6:	19 f0       	breq	.+6      	; 0x11ce <malloc+0x60>
    11c8:	42 17       	cp	r20, r18
    11ca:	53 07       	cpc	r21, r19
    11cc:	18 f4       	brcc	.+6      	; 0x11d4 <malloc+0x66>
    11ce:	9a 01       	movw	r18, r20
    11d0:	bd 01       	movw	r22, r26
    11d2:	ef 01       	movw	r28, r30
    11d4:	df 01       	movw	r26, r30
    11d6:	f8 01       	movw	r30, r16
    11d8:	db cf       	rjmp	.-74     	; 0x1190 <malloc+0x22>
    11da:	21 15       	cp	r18, r1
    11dc:	31 05       	cpc	r19, r1
    11de:	f9 f0       	breq	.+62     	; 0x121e <malloc+0xb0>
    11e0:	28 1b       	sub	r18, r24
    11e2:	39 0b       	sbc	r19, r25
    11e4:	24 30       	cpi	r18, 0x04	; 4
    11e6:	31 05       	cpc	r19, r1
    11e8:	80 f4       	brcc	.+32     	; 0x120a <malloc+0x9c>
    11ea:	8a 81       	ldd	r24, Y+2	; 0x02
    11ec:	9b 81       	ldd	r25, Y+3	; 0x03
    11ee:	61 15       	cp	r22, r1
    11f0:	71 05       	cpc	r23, r1
    11f2:	21 f0       	breq	.+8      	; 0x11fc <malloc+0x8e>
    11f4:	fb 01       	movw	r30, r22
    11f6:	93 83       	std	Z+3, r25	; 0x03
    11f8:	82 83       	std	Z+2, r24	; 0x02
    11fa:	04 c0       	rjmp	.+8      	; 0x1204 <malloc+0x96>
    11fc:	90 93 ec 02 	sts	0x02EC, r25	; 0x8002ec <__flp+0x1>
    1200:	80 93 eb 02 	sts	0x02EB, r24	; 0x8002eb <__flp>
    1204:	fe 01       	movw	r30, r28
    1206:	32 96       	adiw	r30, 0x02	; 2
    1208:	44 c0       	rjmp	.+136    	; 0x1292 <malloc+0x124>
    120a:	fe 01       	movw	r30, r28
    120c:	e2 0f       	add	r30, r18
    120e:	f3 1f       	adc	r31, r19
    1210:	81 93       	st	Z+, r24
    1212:	91 93       	st	Z+, r25
    1214:	22 50       	subi	r18, 0x02	; 2
    1216:	31 09       	sbc	r19, r1
    1218:	39 83       	std	Y+1, r19	; 0x01
    121a:	28 83       	st	Y, r18
    121c:	3a c0       	rjmp	.+116    	; 0x1292 <malloc+0x124>
    121e:	20 91 e9 02 	lds	r18, 0x02E9	; 0x8002e9 <__brkval>
    1222:	30 91 ea 02 	lds	r19, 0x02EA	; 0x8002ea <__brkval+0x1>
    1226:	23 2b       	or	r18, r19
    1228:	41 f4       	brne	.+16     	; 0x123a <malloc+0xcc>
    122a:	20 91 02 01 	lds	r18, 0x0102	; 0x800102 <__malloc_heap_start>
    122e:	30 91 03 01 	lds	r19, 0x0103	; 0x800103 <__malloc_heap_start+0x1>
    1232:	30 93 ea 02 	sts	0x02EA, r19	; 0x8002ea <__brkval+0x1>
    1236:	20 93 e9 02 	sts	0x02E9, r18	; 0x8002e9 <__brkval>
    123a:	20 91 00 01 	lds	r18, 0x0100	; 0x800100 <__DATA_REGION_ORIGIN__>
    123e:	30 91 01 01 	lds	r19, 0x0101	; 0x800101 <__DATA_REGION_ORIGIN__+0x1>
    1242:	21 15       	cp	r18, r1
    1244:	31 05       	cpc	r19, r1
    1246:	41 f4       	brne	.+16     	; 0x1258 <malloc+0xea>
    1248:	2d b7       	in	r18, 0x3d	; 61
    124a:	3e b7       	in	r19, 0x3e	; 62
    124c:	40 91 04 01 	lds	r20, 0x0104	; 0x800104 <__malloc_margin>
    1250:	50 91 05 01 	lds	r21, 0x0105	; 0x800105 <__malloc_margin+0x1>
    1254:	24 1b       	sub	r18, r20
    1256:	35 0b       	sbc	r19, r21
    1258:	e0 91 e9 02 	lds	r30, 0x02E9	; 0x8002e9 <__brkval>
    125c:	f0 91 ea 02 	lds	r31, 0x02EA	; 0x8002ea <__brkval+0x1>
    1260:	e2 17       	cp	r30, r18
    1262:	f3 07       	cpc	r31, r19
    1264:	a0 f4       	brcc	.+40     	; 0x128e <malloc+0x120>
    1266:	2e 1b       	sub	r18, r30
    1268:	3f 0b       	sbc	r19, r31
    126a:	28 17       	cp	r18, r24
    126c:	39 07       	cpc	r19, r25
    126e:	78 f0       	brcs	.+30     	; 0x128e <malloc+0x120>
    1270:	ac 01       	movw	r20, r24
    1272:	4e 5f       	subi	r20, 0xFE	; 254
    1274:	5f 4f       	sbci	r21, 0xFF	; 255
    1276:	24 17       	cp	r18, r20
    1278:	35 07       	cpc	r19, r21
    127a:	48 f0       	brcs	.+18     	; 0x128e <malloc+0x120>
    127c:	4e 0f       	add	r20, r30
    127e:	5f 1f       	adc	r21, r31
    1280:	50 93 ea 02 	sts	0x02EA, r21	; 0x8002ea <__brkval+0x1>
    1284:	40 93 e9 02 	sts	0x02E9, r20	; 0x8002e9 <__brkval>
    1288:	81 93       	st	Z+, r24
    128a:	91 93       	st	Z+, r25
    128c:	02 c0       	rjmp	.+4      	; 0x1292 <malloc+0x124>
    128e:	e0 e0       	ldi	r30, 0x00	; 0
    1290:	f0 e0       	ldi	r31, 0x00	; 0
    1292:	cf 01       	movw	r24, r30
    1294:	df 91       	pop	r29
    1296:	cf 91       	pop	r28
    1298:	1f 91       	pop	r17
    129a:	0f 91       	pop	r16
    129c:	08 95       	ret

0000129e <free>:
    129e:	cf 93       	push	r28
    12a0:	df 93       	push	r29
    12a2:	00 97       	sbiw	r24, 0x00	; 0
    12a4:	09 f4       	brne	.+2      	; 0x12a8 <free+0xa>
    12a6:	81 c0       	rjmp	.+258    	; 0x13aa <free+0x10c>
    12a8:	fc 01       	movw	r30, r24
    12aa:	32 97       	sbiw	r30, 0x02	; 2
    12ac:	13 82       	std	Z+3, r1	; 0x03
    12ae:	12 82       	std	Z+2, r1	; 0x02
    12b0:	a0 91 eb 02 	lds	r26, 0x02EB	; 0x8002eb <__flp>
    12b4:	b0 91 ec 02 	lds	r27, 0x02EC	; 0x8002ec <__flp+0x1>
    12b8:	10 97       	sbiw	r26, 0x00	; 0
    12ba:	81 f4       	brne	.+32     	; 0x12dc <free+0x3e>
    12bc:	20 81       	ld	r18, Z
    12be:	31 81       	ldd	r19, Z+1	; 0x01
    12c0:	82 0f       	add	r24, r18
    12c2:	93 1f       	adc	r25, r19
    12c4:	20 91 e9 02 	lds	r18, 0x02E9	; 0x8002e9 <__brkval>
    12c8:	30 91 ea 02 	lds	r19, 0x02EA	; 0x8002ea <__brkval+0x1>
    12cc:	28 17       	cp	r18, r24
    12ce:	39 07       	cpc	r19, r25
    12d0:	51 f5       	brne	.+84     	; 0x1326 <free+0x88>
    12d2:	f0 93 ea 02 	sts	0x02EA, r31	; 0x8002ea <__brkval+0x1>
    12d6:	e0 93 e9 02 	sts	0x02E9, r30	; 0x8002e9 <__brkval>
    12da:	67 c0       	rjmp	.+206    	; 0x13aa <free+0x10c>
    12dc:	ed 01       	movw	r28, r26
    12de:	20 e0       	ldi	r18, 0x00	; 0
    12e0:	30 e0       	ldi	r19, 0x00	; 0
    12e2:	ce 17       	cp	r28, r30
    12e4:	df 07       	cpc	r29, r31
    12e6:	40 f4       	brcc	.+16     	; 0x12f8 <free+0x5a>
    12e8:	4a 81       	ldd	r20, Y+2	; 0x02
    12ea:	5b 81       	ldd	r21, Y+3	; 0x03
    12ec:	9e 01       	movw	r18, r28
    12ee:	41 15       	cp	r20, r1
    12f0:	51 05       	cpc	r21, r1
    12f2:	f1 f0       	breq	.+60     	; 0x1330 <free+0x92>
    12f4:	ea 01       	movw	r28, r20
    12f6:	f5 cf       	rjmp	.-22     	; 0x12e2 <free+0x44>
    12f8:	d3 83       	std	Z+3, r29	; 0x03
    12fa:	c2 83       	std	Z+2, r28	; 0x02
    12fc:	40 81       	ld	r20, Z
    12fe:	51 81       	ldd	r21, Z+1	; 0x01
    1300:	84 0f       	add	r24, r20
    1302:	95 1f       	adc	r25, r21
    1304:	c8 17       	cp	r28, r24
    1306:	d9 07       	cpc	r29, r25
    1308:	59 f4       	brne	.+22     	; 0x1320 <free+0x82>
    130a:	88 81       	ld	r24, Y
    130c:	99 81       	ldd	r25, Y+1	; 0x01
    130e:	84 0f       	add	r24, r20
    1310:	95 1f       	adc	r25, r21
    1312:	02 96       	adiw	r24, 0x02	; 2
    1314:	91 83       	std	Z+1, r25	; 0x01
    1316:	80 83       	st	Z, r24
    1318:	8a 81       	ldd	r24, Y+2	; 0x02
    131a:	9b 81       	ldd	r25, Y+3	; 0x03
    131c:	93 83       	std	Z+3, r25	; 0x03
    131e:	82 83       	std	Z+2, r24	; 0x02
    1320:	21 15       	cp	r18, r1
    1322:	31 05       	cpc	r19, r1
    1324:	29 f4       	brne	.+10     	; 0x1330 <free+0x92>
    1326:	f0 93 ec 02 	sts	0x02EC, r31	; 0x8002ec <__flp+0x1>
    132a:	e0 93 eb 02 	sts	0x02EB, r30	; 0x8002eb <__flp>
    132e:	3d c0       	rjmp	.+122    	; 0x13aa <free+0x10c>
    1330:	e9 01       	movw	r28, r18
    1332:	fb 83       	std	Y+3, r31	; 0x03
    1334:	ea 83       	std	Y+2, r30	; 0x02
    1336:	49 91       	ld	r20, Y+
    1338:	59 91       	ld	r21, Y+
    133a:	c4 0f       	add	r28, r20
    133c:	d5 1f       	adc	r29, r21
    133e:	ec 17       	cp	r30, r28
    1340:	fd 07       	cpc	r31, r29
    1342:	61 f4       	brne	.+24     	; 0x135c <free+0xbe>
    1344:	80 81       	ld	r24, Z
    1346:	91 81       	ldd	r25, Z+1	; 0x01
    1348:	84 0f       	add	r24, r20
    134a:	95 1f       	adc	r25, r21
    134c:	02 96       	adiw	r24, 0x02	; 2
    134e:	e9 01       	movw	r28, r18
    1350:	99 83       	std	Y+1, r25	; 0x01
    1352:	88 83       	st	Y, r24
    1354:	82 81       	ldd	r24, Z+2	; 0x02
    1356:	93 81       	ldd	r25, Z+3	; 0x03
    1358:	9b 83       	std	Y+3, r25	; 0x03
    135a:	8a 83       	std	Y+2, r24	; 0x02
    135c:	e0 e0       	ldi	r30, 0x00	; 0
    135e:	f0 e0       	ldi	r31, 0x00	; 0
    1360:	12 96       	adiw	r26, 0x02	; 2
    1362:	8d 91       	ld	r24, X+
    1364:	9c 91       	ld	r25, X
    1366:	13 97       	sbiw	r26, 0x03	; 3
    1368:	00 97       	sbiw	r24, 0x00	; 0
    136a:	19 f0       	breq	.+6      	; 0x1372 <free+0xd4>
    136c:	fd 01       	movw	r30, r26
    136e:	dc 01       	movw	r26, r24
    1370:	f7 cf       	rjmp	.-18     	; 0x1360 <free+0xc2>
    1372:	8d 91       	ld	r24, X+
    1374:	9c 91       	ld	r25, X
    1376:	11 97       	sbiw	r26, 0x01	; 1
    1378:	9d 01       	movw	r18, r26
    137a:	2e 5f       	subi	r18, 0xFE	; 254
    137c:	3f 4f       	sbci	r19, 0xFF	; 255
    137e:	82 0f       	add	r24, r18
    1380:	93 1f       	adc	r25, r19
    1382:	20 91 e9 02 	lds	r18, 0x02E9	; 0x8002e9 <__brkval>
    1386:	30 91 ea 02 	lds	r19, 0x02EA	; 0x8002ea <__brkval+0x1>
    138a:	28 17       	cp	r18, r24
    138c:	39 07       	cpc	r19, r25
    138e:	69 f4       	brne	.+26     	; 0x13aa <free+0x10c>
    1390:	30 97       	sbiw	r30, 0x00	; 0
    1392:	29 f4       	brne	.+10     	; 0x139e <free+0x100>
    1394:	10 92 ec 02 	sts	0x02EC, r1	; 0x8002ec <__flp+0x1>
    1398:	10 92 eb 02 	sts	0x02EB, r1	; 0x8002eb <__flp>
    139c:	02 c0       	rjmp	.+4      	; 0x13a2 <free+0x104>
    139e:	13 82       	std	Z+3, r1	; 0x03
    13a0:	12 82       	std	Z+2, r1	; 0x02
    13a2:	b0 93 ea 02 	sts	0x02EA, r27	; 0x8002ea <__brkval+0x1>
    13a6:	a0 93 e9 02 	sts	0x02E9, r26	; 0x8002e9 <__brkval>
    13aa:	df 91       	pop	r29
    13ac:	cf 91       	pop	r28
    13ae:	08 95       	ret

000013b0 <strnlen_P>:
    13b0:	fc 01       	movw	r30, r24
    13b2:	05 90       	lpm	r0, Z+
    13b4:	61 50       	subi	r22, 0x01	; 1
    13b6:	70 40       	sbci	r23, 0x00	; 0
    13b8:	01 10       	cpse	r0, r1
    13ba:	d8 f7       	brcc	.-10     	; 0x13b2 <strnlen_P+0x2>
    13bc:	80 95       	com	r24
    13be:	90 95       	com	r25
    13c0:	8e 0f       	add	r24, r30
    13c2:	9f 1f       	adc	r25, r31
    13c4:	08 95       	ret

000013c6 <memset>:
    13c6:	dc 01       	movw	r26, r24
    13c8:	01 c0       	rjmp	.+2      	; 0x13cc <memset+0x6>
    13ca:	6d 93       	st	X+, r22
    13cc:	41 50       	subi	r20, 0x01	; 1
    13ce:	50 40       	sbci	r21, 0x00	; 0
    13d0:	e0 f7       	brcc	.-8      	; 0x13ca <memset+0x4>
    13d2:	08 95       	ret

000013d4 <strnlen>:
    13d4:	fc 01       	movw	r30, r24
    13d6:	61 50       	subi	r22, 0x01	; 1
    13d8:	70 40       	sbci	r23, 0x00	; 0
    13da:	01 90       	ld	r0, Z+
    13dc:	01 10       	cpse	r0, r1
    13de:	d8 f7       	brcc	.-10     	; 0x13d6 <strnlen+0x2>
    13e0:	80 95       	com	r24
    13e2:	90 95       	com	r25
    13e4:	8e 0f       	add	r24, r30
    13e6:	9f 1f       	adc	r25, r31
    13e8:	08 95       	ret

000013ea <fputc>:
    13ea:	0f 93       	push	r16
    13ec:	1f 93       	push	r17
    13ee:	cf 93       	push	r28
    13f0:	df 93       	push	r29
    13f2:	fb 01       	movw	r30, r22
    13f4:	23 81       	ldd	r18, Z+3	; 0x03
    13f6:	21 fd       	sbrc	r18, 1
    13f8:	03 c0       	rjmp	.+6      	; 0x1400 <fputc+0x16>
    13fa:	8f ef       	ldi	r24, 0xFF	; 255
    13fc:	9f ef       	ldi	r25, 0xFF	; 255
    13fe:	2c c0       	rjmp	.+88     	; 0x1458 <fputc+0x6e>
    1400:	22 ff       	sbrs	r18, 2
    1402:	16 c0       	rjmp	.+44     	; 0x1430 <fputc+0x46>
    1404:	46 81       	ldd	r20, Z+6	; 0x06
    1406:	57 81       	ldd	r21, Z+7	; 0x07
    1408:	24 81       	ldd	r18, Z+4	; 0x04
    140a:	35 81       	ldd	r19, Z+5	; 0x05
    140c:	42 17       	cp	r20, r18
    140e:	53 07       	cpc	r21, r19
    1410:	44 f4       	brge	.+16     	; 0x1422 <fputc+0x38>
    1412:	a0 81       	ld	r26, Z
    1414:	b1 81       	ldd	r27, Z+1	; 0x01
    1416:	9d 01       	movw	r18, r26
    1418:	2f 5f       	subi	r18, 0xFF	; 255
    141a:	3f 4f       	sbci	r19, 0xFF	; 255
    141c:	31 83       	std	Z+1, r19	; 0x01
    141e:	20 83       	st	Z, r18
    1420:	8c 93       	st	X, r24
    1422:	26 81       	ldd	r18, Z+6	; 0x06
    1424:	37 81       	ldd	r19, Z+7	; 0x07
    1426:	2f 5f       	subi	r18, 0xFF	; 255
    1428:	3f 4f       	sbci	r19, 0xFF	; 255
    142a:	37 83       	std	Z+7, r19	; 0x07
    142c:	26 83       	std	Z+6, r18	; 0x06
    142e:	14 c0       	rjmp	.+40     	; 0x1458 <fputc+0x6e>
    1430:	8b 01       	movw	r16, r22
    1432:	ec 01       	movw	r28, r24
    1434:	fb 01       	movw	r30, r22
    1436:	00 84       	ldd	r0, Z+8	; 0x08
    1438:	f1 85       	ldd	r31, Z+9	; 0x09
    143a:	e0 2d       	mov	r30, r0
    143c:	09 95       	icall
    143e:	89 2b       	or	r24, r25
    1440:	e1 f6       	brne	.-72     	; 0x13fa <fputc+0x10>
    1442:	d8 01       	movw	r26, r16
    1444:	16 96       	adiw	r26, 0x06	; 6
    1446:	8d 91       	ld	r24, X+
    1448:	9c 91       	ld	r25, X
    144a:	17 97       	sbiw	r26, 0x07	; 7
    144c:	01 96       	adiw	r24, 0x01	; 1
    144e:	17 96       	adiw	r26, 0x07	; 7
    1450:	9c 93       	st	X, r25
    1452:	8e 93       	st	-X, r24
    1454:	16 97       	sbiw	r26, 0x06	; 6
    1456:	ce 01       	movw	r24, r28
    1458:	df 91       	pop	r29
    145a:	cf 91       	pop	r28
    145c:	1f 91       	pop	r17
    145e:	0f 91       	pop	r16
    1460:	08 95       	ret

00001462 <__ultoa_invert>:
    1462:	fa 01       	movw	r30, r20
    1464:	aa 27       	eor	r26, r26
    1466:	28 30       	cpi	r18, 0x08	; 8
    1468:	51 f1       	breq	.+84     	; 0x14be <__ultoa_invert+0x5c>
    146a:	20 31       	cpi	r18, 0x10	; 16
    146c:	81 f1       	breq	.+96     	; 0x14ce <__ultoa_invert+0x6c>
    146e:	e8 94       	clt
    1470:	6f 93       	push	r22
    1472:	6e 7f       	andi	r22, 0xFE	; 254
    1474:	6e 5f       	subi	r22, 0xFE	; 254
    1476:	7f 4f       	sbci	r23, 0xFF	; 255
    1478:	8f 4f       	sbci	r24, 0xFF	; 255
    147a:	9f 4f       	sbci	r25, 0xFF	; 255
    147c:	af 4f       	sbci	r26, 0xFF	; 255
    147e:	b1 e0       	ldi	r27, 0x01	; 1
    1480:	3e d0       	rcall	.+124    	; 0x14fe <__ultoa_invert+0x9c>
    1482:	b4 e0       	ldi	r27, 0x04	; 4
    1484:	3c d0       	rcall	.+120    	; 0x14fe <__ultoa_invert+0x9c>
    1486:	67 0f       	add	r22, r23
    1488:	78 1f       	adc	r23, r24
    148a:	89 1f       	adc	r24, r25
    148c:	9a 1f       	adc	r25, r26
    148e:	a1 1d       	adc	r26, r1
    1490:	68 0f       	add	r22, r24
    1492:	79 1f       	adc	r23, r25
    1494:	8a 1f       	adc	r24, r26
    1496:	91 1d       	adc	r25, r1
    1498:	a1 1d       	adc	r26, r1
    149a:	6a 0f       	add	r22, r26
    149c:	71 1d       	adc	r23, r1
    149e:	81 1d       	adc	r24, r1
    14a0:	91 1d       	adc	r25, r1
    14a2:	a1 1d       	adc	r26, r1
    14a4:	20 d0       	rcall	.+64     	; 0x14e6 <__ultoa_invert+0x84>
    14a6:	09 f4       	brne	.+2      	; 0x14aa <__ultoa_invert+0x48>
    14a8:	68 94       	set
    14aa:	3f 91       	pop	r19
    14ac:	2a e0       	ldi	r18, 0x0A	; 10
    14ae:	26 9f       	mul	r18, r22
    14b0:	11 24       	eor	r1, r1
    14b2:	30 19       	sub	r19, r0
    14b4:	30 5d       	subi	r19, 0xD0	; 208
    14b6:	31 93       	st	Z+, r19
    14b8:	de f6       	brtc	.-74     	; 0x1470 <__ultoa_invert+0xe>
    14ba:	cf 01       	movw	r24, r30
    14bc:	08 95       	ret
    14be:	46 2f       	mov	r20, r22
    14c0:	47 70       	andi	r20, 0x07	; 7
    14c2:	40 5d       	subi	r20, 0xD0	; 208
    14c4:	41 93       	st	Z+, r20
    14c6:	b3 e0       	ldi	r27, 0x03	; 3
    14c8:	0f d0       	rcall	.+30     	; 0x14e8 <__ultoa_invert+0x86>
    14ca:	c9 f7       	brne	.-14     	; 0x14be <__ultoa_invert+0x5c>
    14cc:	f6 cf       	rjmp	.-20     	; 0x14ba <__ultoa_invert+0x58>
    14ce:	46 2f       	mov	r20, r22
    14d0:	4f 70       	andi	r20, 0x0F	; 15
    14d2:	40 5d       	subi	r20, 0xD0	; 208
    14d4:	4a 33       	cpi	r20, 0x3A	; 58
    14d6:	18 f0       	brcs	.+6      	; 0x14de <__ultoa_invert+0x7c>
    14d8:	49 5d       	subi	r20, 0xD9	; 217
    14da:	31 fd       	sbrc	r19, 1
    14dc:	40 52       	subi	r20, 0x20	; 32
    14de:	41 93       	st	Z+, r20
    14e0:	02 d0       	rcall	.+4      	; 0x14e6 <__ultoa_invert+0x84>
    14e2:	a9 f7       	brne	.-22     	; 0x14ce <__ultoa_invert+0x6c>
    14e4:	ea cf       	rjmp	.-44     	; 0x14ba <__ultoa_invert+0x58>
    14e6:	b4 e0       	ldi	r27, 0x04	; 4
    14e8:	a6 95       	lsr	r26
    14ea:	97 95       	ror	r25
    14ec:	87 95       	ror	r24
    14ee:	77 95       	ror	r23
    14f0:	67 95       	ror	r22
    14f2:	ba 95       	dec	r27
    14f4:	c9 f7       	brne	.-14     	; 0x14e8 <__ultoa_invert+0x86>
    14f6:	00 97       	sbiw	r24, 0x00	; 0
    14f8:	61 05       	cpc	r22, r1
    14fa:	71 05       	cpc	r23, r1
    14fc:	08 95       	ret
    14fe:	9b 01       	movw	r18, r22
    1500:	ac 01       	movw	r20, r24
    1502:	0a 2e       	mov	r0, r26
    1504:	06 94       	lsr	r0
    1506:	57 95       	ror	r21
    1508:	47 95       	ror	r20
    150a:	37 95       	ror	r19
    150c:	27 95       	ror	r18
    150e:	ba 95       	dec	r27
    1510:	c9 f7       	brne	.-14     	; 0x1504 <__ultoa_invert+0xa2>
    1512:	62 0f       	add	r22, r18
    1514:	73 1f       	adc	r23, r19
    1516:	84 1f       	adc	r24, r20
    1518:	95 1f       	adc	r25, r21
    151a:	a0 1d       	adc	r26, r0
    151c:	08 95       	ret

0000151e <__prologue_saves__>:
    151e:	2f 92       	push	r2
    1520:	3f 92       	push	r3
    1522:	4f 92       	push	r4
    1524:	5f 92       	push	r5
    1526:	6f 92       	push	r6
    1528:	7f 92       	push	r7
    152a:	8f 92       	push	r8
    152c:	9f 92       	push	r9
    152e:	af 92       	push	r10
    1530:	bf 92       	push	r11
    1532:	cf 92       	push	r12
    1534:	df 92       	push	r13
    1536:	ef 92       	push	r14
    1538:	ff 92       	push	r15
    153a:	0f 93       	push	r16
    153c:	1f 93       	push	r17
    153e:	cf 93       	push	r28
    1540:	df 93       	push	r29
    1542:	cd b7       	in	r28, 0x3d	; 61
    1544:	de b7       	in	r29, 0x3e	; 62
    1546:	ca 1b       	sub	r28, r26
    1548:	db 0b       	sbc	r29, r27
    154a:	0f b6       	in	r0, 0x3f	; 63
    154c:	f8 94       	cli
    154e:	de bf       	out	0x3e, r29	; 62
    1550:	0f be       	out	0x3f, r0	; 63
    1552:	cd bf       	out	0x3d, r28	; 61
    1554:	09 94       	ijmp

00001556 <__epilogue_restores__>:
    1556:	2a 88       	ldd	r2, Y+18	; 0x12
    1558:	39 88       	ldd	r3, Y+17	; 0x11
    155a:	48 88       	ldd	r4, Y+16	; 0x10
    155c:	5f 84       	ldd	r5, Y+15	; 0x0f
    155e:	6e 84       	ldd	r6, Y+14	; 0x0e
    1560:	7d 84       	ldd	r7, Y+13	; 0x0d
    1562:	8c 84       	ldd	r8, Y+12	; 0x0c
    1564:	9b 84       	ldd	r9, Y+11	; 0x0b
    1566:	aa 84       	ldd	r10, Y+10	; 0x0a
    1568:	b9 84       	ldd	r11, Y+9	; 0x09
    156a:	c8 84       	ldd	r12, Y+8	; 0x08
    156c:	df 80       	ldd	r13, Y+7	; 0x07
    156e:	ee 80       	ldd	r14, Y+6	; 0x06
    1570:	fd 80       	ldd	r15, Y+5	; 0x05
    1572:	0c 81       	ldd	r16, Y+4	; 0x04
    1574:	1b 81       	ldd	r17, Y+3	; 0x03
    1576:	aa 81       	ldd	r26, Y+2	; 0x02
    1578:	b9 81       	ldd	r27, Y+1	; 0x01
    157a:	ce 0f       	add	r28, r30
    157c:	d1 1d       	adc	r29, r1
    157e:	0f b6       	in	r0, 0x3f	; 63
    1580:	f8 94       	cli
    1582:	de bf       	out	0x3e, r29	; 62
    1584:	0f be       	out	0x3f, r0	; 63
    1586:	cd bf       	out	0x3d, r28	; 61
    1588:	ed 01       	movw	r28, r26
    158a:	08 95       	ret

0000158c <_exit>:
    158c:	f8 94       	cli

0000158e <__stop_program>:
    158e:	ff cf       	rjmp	.-2      	; 0x158e <__stop_program>
